
main:     file format elf64-x86-64


Disassembly of section .init:

0000000000001000 <_init>:
    1000:	f3 0f 1e fa          	endbr64 
    1004:	48 83 ec 08          	sub    $0x8,%rsp
    1008:	48 8b 05 d9 2f 00 00 	mov    0x2fd9(%rip),%rax        # 3fe8 <__gmon_start__@Base>
    100f:	48 85 c0             	test   %rax,%rax
    1012:	74 02                	je     1016 <_init+0x16>
    1014:	ff d0                	call   *%rax
    1016:	48 83 c4 08          	add    $0x8,%rsp
    101a:	c3                   	ret    

Disassembly of section .plt:

0000000000001020 <.plt>:
    1020:	ff 35 52 2f 00 00    	push   0x2f52(%rip)        # 3f78 <_GLOBAL_OFFSET_TABLE_+0x8>
    1026:	f2 ff 25 53 2f 00 00 	bnd jmp *0x2f53(%rip)        # 3f80 <_GLOBAL_OFFSET_TABLE_+0x10>
    102d:	0f 1f 00             	nopl   (%rax)
    1030:	f3 0f 1e fa          	endbr64 
    1034:	68 00 00 00 00       	push   $0x0
    1039:	f2 e9 e1 ff ff ff    	bnd jmp 1020 <_init+0x20>
    103f:	90                   	nop
    1040:	f3 0f 1e fa          	endbr64 
    1044:	68 01 00 00 00       	push   $0x1
    1049:	f2 e9 d1 ff ff ff    	bnd jmp 1020 <_init+0x20>
    104f:	90                   	nop
    1050:	f3 0f 1e fa          	endbr64 
    1054:	68 02 00 00 00       	push   $0x2
    1059:	f2 e9 c1 ff ff ff    	bnd jmp 1020 <_init+0x20>
    105f:	90                   	nop
    1060:	f3 0f 1e fa          	endbr64 
    1064:	68 03 00 00 00       	push   $0x3
    1069:	f2 e9 b1 ff ff ff    	bnd jmp 1020 <_init+0x20>
    106f:	90                   	nop
    1070:	f3 0f 1e fa          	endbr64 
    1074:	68 04 00 00 00       	push   $0x4
    1079:	f2 e9 a1 ff ff ff    	bnd jmp 1020 <_init+0x20>
    107f:	90                   	nop
    1080:	f3 0f 1e fa          	endbr64 
    1084:	68 05 00 00 00       	push   $0x5
    1089:	f2 e9 91 ff ff ff    	bnd jmp 1020 <_init+0x20>
    108f:	90                   	nop
    1090:	f3 0f 1e fa          	endbr64 
    1094:	68 06 00 00 00       	push   $0x6
    1099:	f2 e9 81 ff ff ff    	bnd jmp 1020 <_init+0x20>
    109f:	90                   	nop
    10a0:	f3 0f 1e fa          	endbr64 
    10a4:	68 07 00 00 00       	push   $0x7
    10a9:	f2 e9 71 ff ff ff    	bnd jmp 1020 <_init+0x20>
    10af:	90                   	nop
    10b0:	f3 0f 1e fa          	endbr64 
    10b4:	68 08 00 00 00       	push   $0x8
    10b9:	f2 e9 61 ff ff ff    	bnd jmp 1020 <_init+0x20>
    10bf:	90                   	nop

Disassembly of section .plt.got:

00000000000010c0 <__cxa_finalize@plt>:
    10c0:	f3 0f 1e fa          	endbr64 
    10c4:	f2 ff 25 05 2f 00 00 	bnd jmp *0x2f05(%rip)        # 3fd0 <__cxa_finalize@GLIBC_2.2.5>
    10cb:	0f 1f 44 00 00       	nopl   0x0(%rax,%rax,1)

Disassembly of section .plt.sec:

00000000000010d0 <_Znam@plt>:
    10d0:	f3 0f 1e fa          	endbr64 
    10d4:	f2 ff 25 ad 2e 00 00 	bnd jmp *0x2ead(%rip)        # 3f88 <_Znam@GLIBCXX_3.4>
    10db:	0f 1f 44 00 00       	nopl   0x0(%rax,%rax,1)

00000000000010e0 <__cxa_atexit@plt>:
    10e0:	f3 0f 1e fa          	endbr64 
    10e4:	f2 ff 25 a5 2e 00 00 	bnd jmp *0x2ea5(%rip)        # 3f90 <__cxa_atexit@GLIBC_2.2.5>
    10eb:	0f 1f 44 00 00       	nopl   0x0(%rax,%rax,1)

00000000000010f0 <_ZStlsISt11char_traitsIcEERSt13basic_ostreamIcT_ES5_PKc@plt>:
    10f0:	f3 0f 1e fa          	endbr64 
    10f4:	f2 ff 25 9d 2e 00 00 	bnd jmp *0x2e9d(%rip)        # 3f98 <_ZStlsISt11char_traitsIcEERSt13basic_ostreamIcT_ES5_PKc@GLIBCXX_3.4>
    10fb:	0f 1f 44 00 00       	nopl   0x0(%rax,%rax,1)

0000000000001100 <_Znwm@plt>:
    1100:	f3 0f 1e fa          	endbr64 
    1104:	f2 ff 25 95 2e 00 00 	bnd jmp *0x2e95(%rip)        # 3fa0 <_Znwm@GLIBCXX_3.4>
    110b:	0f 1f 44 00 00       	nopl   0x0(%rax,%rax,1)

0000000000001110 <_ZdlPvm@plt>:
    1110:	f3 0f 1e fa          	endbr64 
    1114:	f2 ff 25 8d 2e 00 00 	bnd jmp *0x2e8d(%rip)        # 3fa8 <_ZdlPvm@CXXABI_1.3.9>
    111b:	0f 1f 44 00 00       	nopl   0x0(%rax,%rax,1)

0000000000001120 <__stack_chk_fail@plt>:
    1120:	f3 0f 1e fa          	endbr64 
    1124:	f2 ff 25 85 2e 00 00 	bnd jmp *0x2e85(%rip)        # 3fb0 <__stack_chk_fail@GLIBC_2.4>
    112b:	0f 1f 44 00 00       	nopl   0x0(%rax,%rax,1)

0000000000001130 <_ZStlsISt11char_traitsIcEERSt13basic_ostreamIcT_ES5_c@plt>:
    1130:	f3 0f 1e fa          	endbr64 
    1134:	f2 ff 25 7d 2e 00 00 	bnd jmp *0x2e7d(%rip)        # 3fb8 <_ZStlsISt11char_traitsIcEERSt13basic_ostreamIcT_ES5_c@GLIBCXX_3.4>
    113b:	0f 1f 44 00 00       	nopl   0x0(%rax,%rax,1)

0000000000001140 <_ZNSt8ios_base4InitC1Ev@plt>:
    1140:	f3 0f 1e fa          	endbr64 
    1144:	f2 ff 25 75 2e 00 00 	bnd jmp *0x2e75(%rip)        # 3fc0 <_ZNSt8ios_base4InitC1Ev@GLIBCXX_3.4>
    114b:	0f 1f 44 00 00       	nopl   0x0(%rax,%rax,1)

0000000000001150 <_Unwind_Resume@plt>:
    1150:	f3 0f 1e fa          	endbr64 
    1154:	f2 ff 25 6d 2e 00 00 	bnd jmp *0x2e6d(%rip)        # 3fc8 <_Unwind_Resume@GCC_3.0>
    115b:	0f 1f 44 00 00       	nopl   0x0(%rax,%rax,1)

Disassembly of section .text:

0000000000001160 <_start>:
    1160:	f3 0f 1e fa          	endbr64 
    1164:	31 ed                	xor    %ebp,%ebp
    1166:	49 89 d1             	mov    %rdx,%r9
    1169:	5e                   	pop    %rsi
    116a:	48 89 e2             	mov    %rsp,%rdx
    116d:	48 83 e4 f0          	and    $0xfffffffffffffff0,%rsp
    1171:	50                   	push   %rax
    1172:	54                   	push   %rsp
    1173:	45 31 c0             	xor    %r8d,%r8d
    1176:	31 c9                	xor    %ecx,%ecx
    1178:	48 8d 3d ca 00 00 00 	lea    0xca(%rip),%rdi        # 1249 <main>
    117f:	ff 15 53 2e 00 00    	call   *0x2e53(%rip)        # 3fd8 <__libc_start_main@GLIBC_2.34>
    1185:	f4                   	hlt    
    1186:	66 2e 0f 1f 84 00 00 	cs nopw 0x0(%rax,%rax,1)
    118d:	00 00 00 

0000000000001190 <deregister_tm_clones>:
    1190:	48 8d 3d 81 2e 00 00 	lea    0x2e81(%rip),%rdi        # 4018 <__TMC_END__>
    1197:	48 8d 05 7a 2e 00 00 	lea    0x2e7a(%rip),%rax        # 4018 <__TMC_END__>
    119e:	48 39 f8             	cmp    %rdi,%rax
    11a1:	74 15                	je     11b8 <deregister_tm_clones+0x28>
    11a3:	48 8b 05 36 2e 00 00 	mov    0x2e36(%rip),%rax        # 3fe0 <_ITM_deregisterTMCloneTable@Base>
    11aa:	48 85 c0             	test   %rax,%rax
    11ad:	74 09                	je     11b8 <deregister_tm_clones+0x28>
    11af:	ff e0                	jmp    *%rax
    11b1:	0f 1f 80 00 00 00 00 	nopl   0x0(%rax)
    11b8:	c3                   	ret    
    11b9:	0f 1f 80 00 00 00 00 	nopl   0x0(%rax)

00000000000011c0 <register_tm_clones>:
    11c0:	48 8d 3d 51 2e 00 00 	lea    0x2e51(%rip),%rdi        # 4018 <__TMC_END__>
    11c7:	48 8d 35 4a 2e 00 00 	lea    0x2e4a(%rip),%rsi        # 4018 <__TMC_END__>
    11ce:	48 29 fe             	sub    %rdi,%rsi
    11d1:	48 89 f0             	mov    %rsi,%rax
    11d4:	48 c1 ee 3f          	shr    $0x3f,%rsi
    11d8:	48 c1 f8 03          	sar    $0x3,%rax
    11dc:	48 01 c6             	add    %rax,%rsi
    11df:	48 d1 fe             	sar    %rsi
    11e2:	74 14                	je     11f8 <register_tm_clones+0x38>
    11e4:	48 8b 05 05 2e 00 00 	mov    0x2e05(%rip),%rax        # 3ff0 <_ITM_registerTMCloneTable@Base>
    11eb:	48 85 c0             	test   %rax,%rax
    11ee:	74 08                	je     11f8 <register_tm_clones+0x38>
    11f0:	ff e0                	jmp    *%rax
    11f2:	66 0f 1f 44 00 00    	nopw   0x0(%rax,%rax,1)
    11f8:	c3                   	ret    
    11f9:	0f 1f 80 00 00 00 00 	nopl   0x0(%rax)

0000000000001200 <__do_global_dtors_aux>:
    1200:	f3 0f 1e fa          	endbr64 
    1204:	80 3d 45 2f 00 00 00 	cmpb   $0x0,0x2f45(%rip)        # 4150 <completed.0>
    120b:	75 2b                	jne    1238 <__do_global_dtors_aux+0x38>
    120d:	55                   	push   %rbp
    120e:	48 83 3d ba 2d 00 00 	cmpq   $0x0,0x2dba(%rip)        # 3fd0 <__cxa_finalize@GLIBC_2.2.5>
    1215:	00 
    1216:	48 89 e5             	mov    %rsp,%rbp
    1219:	74 0c                	je     1227 <__do_global_dtors_aux+0x27>
    121b:	48 8b 3d e6 2d 00 00 	mov    0x2de6(%rip),%rdi        # 4008 <__dso_handle>
    1222:	e8 99 fe ff ff       	call   10c0 <__cxa_finalize@plt>
    1227:	e8 64 ff ff ff       	call   1190 <deregister_tm_clones>
    122c:	c6 05 1d 2f 00 00 01 	movb   $0x1,0x2f1d(%rip)        # 4150 <completed.0>
    1233:	5d                   	pop    %rbp
    1234:	c3                   	ret    
    1235:	0f 1f 00             	nopl   (%rax)
    1238:	c3                   	ret    
    1239:	0f 1f 80 00 00 00 00 	nopl   0x0(%rax)

0000000000001240 <frame_dummy>:
    1240:	f3 0f 1e fa          	endbr64 
    1244:	e9 77 ff ff ff       	jmp    11c0 <register_tm_clones>

0000000000001249 <main>:
    1249:	f3 0f 1e fa          	endbr64 
    124d:	55                   	push   %rbp
    124e:	48 89 e5             	mov    %rsp,%rbp
    1251:	48 83 ec 30          	sub    $0x30,%rsp
    1255:	64 48 8b 04 25 28 00 	mov    %fs:0x28,%rax
    125c:	00 00 
    125e:	48 89 45 f8          	mov    %rax,-0x8(%rbp)
    1262:	31 c0                	xor    %eax,%eax
    1264:	48 8d 45 d0          	lea    -0x30(%rbp),%rax
    1268:	48 8d 15 95 0d 00 00 	lea    0xd95(%rip),%rdx        # 2004 <_IO_stdin_used+0x4>
    126f:	48 89 d6             	mov    %rdx,%rsi
    1272:	48 89 c7             	mov    %rax,%rdi
    1275:	e8 f2 08 00 00       	call   1b6c <_ZN4util6StringIcNS_9AllocatorIcEEEC1EPKc>
    127a:	48 8d 45 d0          	lea    -0x30(%rbp),%rax
    127e:	48 89 c7             	mov    %rax,%rdi
    1281:	e8 aa 00 00 00       	call   1330 <_ZNK4util6StringIcNS_9AllocatorIcEEE6asCstrEv>
    1286:	48 89 c6             	mov    %rax,%rsi
    1289:	48 8d 05 b0 2d 00 00 	lea    0x2db0(%rip),%rax        # 4040 <_ZSt4cout@GLIBCXX_3.4>
    1290:	48 89 c7             	mov    %rax,%rdi
    1293:	e8 58 fe ff ff       	call   10f0 <_ZStlsISt11char_traitsIcEERSt13basic_ostreamIcT_ES5_PKc@plt>
    1298:	be 0a 00 00 00       	mov    $0xa,%esi
    129d:	48 89 c7             	mov    %rax,%rdi
    12a0:	e8 8b fe ff ff       	call   1130 <_ZStlsISt11char_traitsIcEERSt13basic_ostreamIcT_ES5_c@plt>
    12a5:	b8 00 00 00 00       	mov    $0x0,%eax
    12aa:	48 8b 55 f8          	mov    -0x8(%rbp),%rdx
    12ae:	64 48 2b 14 25 28 00 	sub    %fs:0x28,%rdx
    12b5:	00 00 
    12b7:	74 05                	je     12be <main+0x75>
    12b9:	e8 62 fe ff ff       	call   1120 <__stack_chk_fail@plt>
    12be:	c9                   	leave  
    12bf:	c3                   	ret    

00000000000012c0 <_Z41__static_initialization_and_destruction_0ii>:
    12c0:	f3 0f 1e fa          	endbr64 
    12c4:	55                   	push   %rbp
    12c5:	48 89 e5             	mov    %rsp,%rbp
    12c8:	48 83 ec 10          	sub    $0x10,%rsp
    12cc:	89 7d fc             	mov    %edi,-0x4(%rbp)
    12cf:	89 75 f8             	mov    %esi,-0x8(%rbp)
    12d2:	83 7d fc 01          	cmpl   $0x1,-0x4(%rbp)
    12d6:	75 3b                	jne    1313 <_Z41__static_initialization_and_destruction_0ii+0x53>
    12d8:	81 7d f8 ff ff 00 00 	cmpl   $0xffff,-0x8(%rbp)
    12df:	75 32                	jne    1313 <_Z41__static_initialization_and_destruction_0ii+0x53>
    12e1:	48 8d 05 69 2e 00 00 	lea    0x2e69(%rip),%rax        # 4151 <_ZStL8__ioinit>
    12e8:	48 89 c7             	mov    %rax,%rdi
    12eb:	e8 50 fe ff ff       	call   1140 <_ZNSt8ios_base4InitC1Ev@plt>
    12f0:	48 8d 05 11 2d 00 00 	lea    0x2d11(%rip),%rax        # 4008 <__dso_handle>
    12f7:	48 89 c2             	mov    %rax,%rdx
    12fa:	48 8d 05 50 2e 00 00 	lea    0x2e50(%rip),%rax        # 4151 <_ZStL8__ioinit>
    1301:	48 89 c6             	mov    %rax,%rsi
    1304:	48 8b 05 ed 2c 00 00 	mov    0x2ced(%rip),%rax        # 3ff8 <_ZNSt8ios_base4InitD1Ev@GLIBCXX_3.4>
    130b:	48 89 c7             	mov    %rax,%rdi
    130e:	e8 cd fd ff ff       	call   10e0 <__cxa_atexit@plt>
    1313:	90                   	nop
    1314:	c9                   	leave  
    1315:	c3                   	ret    

0000000000001316 <_GLOBAL__sub_I_main>:
    1316:	f3 0f 1e fa          	endbr64 
    131a:	55                   	push   %rbp
    131b:	48 89 e5             	mov    %rsp,%rbp
    131e:	be ff ff 00 00       	mov    $0xffff,%esi
    1323:	bf 01 00 00 00       	mov    $0x1,%edi
    1328:	e8 93 ff ff ff       	call   12c0 <_Z41__static_initialization_and_destruction_0ii>
    132d:	5d                   	pop    %rbp
    132e:	c3                   	ret    
    132f:	90                   	nop

0000000000001330 <_ZNK4util6StringIcNS_9AllocatorIcEEE6asCstrEv>:
    1330:	f3 0f 1e fa          	endbr64 
    1334:	55                   	push   %rbp
    1335:	48 89 e5             	mov    %rsp,%rbp
    1338:	48 89 7d f8          	mov    %rdi,-0x8(%rbp)
    133c:	48 8b 45 f8          	mov    -0x8(%rbp),%rax
    1340:	48 8b 00             	mov    (%rax),%rax
    1343:	5d                   	pop    %rbp
    1344:	c3                   	ret    

0000000000001345 <_ZN4util5parseENS_6StringIcNS_9AllocatorIcEEEEbc>:
    1345:	f3 0f 1e fa          	endbr64 
    1349:	55                   	push   %rbp
    134a:	48 89 e5             	mov    %rsp,%rbp
    134d:	53                   	push   %rbx
    134e:	48 81 ec 88 00 00 00 	sub    $0x88,%rsp
    1355:	48 89 7d 88          	mov    %rdi,-0x78(%rbp)
    1359:	48 89 75 80          	mov    %rsi,-0x80(%rbp)
    135d:	89 c8                	mov    %ecx,%eax
    135f:	88 95 7c ff ff ff    	mov    %dl,-0x84(%rbp)
    1365:	88 85 78 ff ff ff    	mov    %al,-0x88(%rbp)
    136b:	64 48 8b 04 25 28 00 	mov    %fs:0x28,%rax
    1372:	00 00 
    1374:	48 89 45 e8          	mov    %rax,-0x18(%rbp)
    1378:	31 c0                	xor    %eax,%eax
    137a:	0f be 95 78 ff ff ff 	movsbl -0x88(%rbp),%edx
    1381:	48 8d 45 a0          	lea    -0x60(%rbp),%rax
    1385:	48 8b 75 80          	mov    -0x80(%rbp),%rsi
    1389:	89 d1                	mov    %edx,%ecx
    138b:	ba 00 00 00 00       	mov    $0x0,%edx
    1390:	48 89 c7             	mov    %rax,%rdi
    1393:	e8 cc 01 00 00       	call   1564 <_ZN4util6StringIcNS_9AllocatorIcEEE6substrEic>
    1398:	48 8b 45 88          	mov    -0x78(%rbp),%rax
    139c:	48 89 c7             	mov    %rax,%rdi
    139f:	e8 64 03 00 00       	call   1708 <_ZN4util10LinkedListINS_6StringIcNS_9AllocatorIcEEEENS2_INS_4NodeIS4_EEEEEC1Ev>
    13a4:	48 8d 55 a0          	lea    -0x60(%rbp),%rdx
    13a8:	48 8d 45 c0          	lea    -0x40(%rbp),%rax
    13ac:	48 89 d6             	mov    %rdx,%rsi
    13af:	48 89 c7             	mov    %rax,%rdi
    13b2:	e8 8d 04 00 00       	call   1844 <_ZN4util6StringIcNS_9AllocatorIcEEEC1ERS3_>
    13b7:	48 8d 55 c0          	lea    -0x40(%rbp),%rdx
    13bb:	48 8b 45 88          	mov    -0x78(%rbp),%rax
    13bf:	48 89 d6             	mov    %rdx,%rsi
    13c2:	48 89 c7             	mov    %rax,%rdi
    13c5:	e8 a6 04 00 00       	call   1870 <_ZN4util10LinkedListINS_6StringIcNS_9AllocatorIcEEEENS2_INS_4NodeIS4_EEEEE6appendES4_>
    13ca:	48 8d 45 a0          	lea    -0x60(%rbp),%rax
    13ce:	48 89 c7             	mov    %rax,%rdi
    13d1:	e8 fc 05 00 00       	call   19d2 <_ZN4util6StringIcNS_9AllocatorIcEEE7getSizeEv>
    13d6:	89 45 9c             	mov    %eax,-0x64(%rbp)
    13d9:	eb 7f                	jmp    145a <_ZN4util5parseENS_6StringIcNS_9AllocatorIcEEEEbc+0x115>
    13db:	0f be 8d 78 ff ff ff 	movsbl -0x88(%rbp),%ecx
    13e2:	48 8d 45 c0          	lea    -0x40(%rbp),%rax
    13e6:	8b 55 9c             	mov    -0x64(%rbp),%edx
    13e9:	48 8b 75 80          	mov    -0x80(%rbp),%rsi
    13ed:	48 89 c7             	mov    %rax,%rdi
    13f0:	e8 6f 01 00 00       	call   1564 <_ZN4util6StringIcNS_9AllocatorIcEEE6substrEic>
    13f5:	48 8d 55 c0          	lea    -0x40(%rbp),%rdx
    13f9:	48 8d 45 a0          	lea    -0x60(%rbp),%rax
    13fd:	48 89 d6             	mov    %rdx,%rsi
    1400:	48 89 c7             	mov    %rax,%rdi
    1403:	e8 08 06 00 00       	call   1a10 <_ZN4util6StringIcNS_9AllocatorIcEEEaSERKS3_>
    1408:	48 8d 45 a0          	lea    -0x60(%rbp),%rax
    140c:	48 8d 15 fd 0b 00 00 	lea    0xbfd(%rip),%rdx        # 2010 <_IO_stdin_used+0x10>
    1413:	48 89 d6             	mov    %rdx,%rsi
    1416:	48 89 c7             	mov    %rax,%rdi
    1419:	e8 1c 06 00 00       	call   1a3a <_ZN4util6StringIcNS_9AllocatorIcEEE10startsWithEPKc>
    141e:	48 8d 55 a0          	lea    -0x60(%rbp),%rdx
    1422:	48 8d 45 c0          	lea    -0x40(%rbp),%rax
    1426:	48 89 d6             	mov    %rdx,%rsi
    1429:	48 89 c7             	mov    %rax,%rdi
    142c:	e8 13 04 00 00       	call   1844 <_ZN4util6StringIcNS_9AllocatorIcEEEC1ERS3_>
    1431:	48 8d 55 c0          	lea    -0x40(%rbp),%rdx
    1435:	48 8b 45 88          	mov    -0x78(%rbp),%rax
    1439:	48 89 d6             	mov    %rdx,%rsi
    143c:	48 89 c7             	mov    %rax,%rdi
    143f:	e8 2c 04 00 00       	call   1870 <_ZN4util10LinkedListINS_6StringIcNS_9AllocatorIcEEEENS2_INS_4NodeIS4_EEEEE6appendES4_>
    1444:	48 8d 45 a0          	lea    -0x60(%rbp),%rax
    1448:	48 89 c7             	mov    %rax,%rdi
    144b:	e8 82 05 00 00       	call   19d2 <_ZN4util6StringIcNS_9AllocatorIcEEE7getSizeEv>
    1450:	89 c2                	mov    %eax,%edx
    1452:	8b 45 9c             	mov    -0x64(%rbp),%eax
    1455:	01 d0                	add    %edx,%eax
    1457:	89 45 9c             	mov    %eax,-0x64(%rbp)
    145a:	8b 45 9c             	mov    -0x64(%rbp),%eax
    145d:	48 63 d8             	movslq %eax,%rbx
    1460:	48 8b 45 80          	mov    -0x80(%rbp),%rax
    1464:	48 89 c7             	mov    %rax,%rdi
    1467:	e8 66 05 00 00       	call   19d2 <_ZN4util6StringIcNS_9AllocatorIcEEE7getSizeEv>
    146c:	48 39 c3             	cmp    %rax,%rbx
    146f:	0f 92 c0             	setb   %al
    1472:	84 c0                	test   %al,%al
    1474:	0f 85 61 ff ff ff    	jne    13db <_ZN4util5parseENS_6StringIcNS_9AllocatorIcEEEEbc+0x96>
    147a:	eb 1e                	jmp    149a <_ZN4util5parseENS_6StringIcNS_9AllocatorIcEEEEbc+0x155>
    147c:	f3 0f 1e fa          	endbr64 
    1480:	48 89 c3             	mov    %rax,%rbx
    1483:	48 8b 45 88          	mov    -0x78(%rbp),%rax
    1487:	48 89 c7             	mov    %rax,%rdi
    148a:	e8 a1 00 00 00       	call   1530 <_ZN4util10LinkedListINS_6StringIcNS_9AllocatorIcEEEENS2_INS_4NodeIS4_EEEEED1Ev>
    148f:	48 89 d8             	mov    %rbx,%rax
    1492:	48 89 c7             	mov    %rax,%rdi
    1495:	e8 b6 fc ff ff       	call   1150 <_Unwind_Resume@plt>
    149a:	48 8b 45 e8          	mov    -0x18(%rbp),%rax
    149e:	64 48 2b 04 25 28 00 	sub    %fs:0x28,%rax
    14a5:	00 00 
    14a7:	74 05                	je     14ae <_ZN4util5parseENS_6StringIcNS_9AllocatorIcEEEEbc+0x169>
    14a9:	e8 72 fc ff ff       	call   1120 <__stack_chk_fail@plt>
    14ae:	48 8b 45 88          	mov    -0x78(%rbp),%rax
    14b2:	48 8b 5d f8          	mov    -0x8(%rbp),%rbx
    14b6:	c9                   	leave  
    14b7:	c3                   	ret    

00000000000014b8 <_ZN4util6strcmpEPKcS1_>:
    14b8:	f3 0f 1e fa          	endbr64 
    14bc:	55                   	push   %rbp
    14bd:	48 89 e5             	mov    %rsp,%rbp
    14c0:	48 89 7d e8          	mov    %rdi,-0x18(%rbp)
    14c4:	48 89 75 e0          	mov    %rsi,-0x20(%rbp)
    14c8:	c7 45 fc 00 00 00 00 	movl   $0x0,-0x4(%rbp)
    14cf:	eb 43                	jmp    1514 <_ZN4util6strcmpEPKcS1_+0x5c>
    14d1:	8b 45 fc             	mov    -0x4(%rbp),%eax
    14d4:	48 63 d0             	movslq %eax,%rdx
    14d7:	48 8b 45 e8          	mov    -0x18(%rbp),%rax
    14db:	48 01 d0             	add    %rdx,%rax
    14de:	0f b6 10             	movzbl (%rax),%edx
    14e1:	8b 45 fc             	mov    -0x4(%rbp),%eax
    14e4:	48 63 c8             	movslq %eax,%rcx
    14e7:	48 8b 45 e0          	mov    -0x20(%rbp),%rax
    14eb:	48 01 c8             	add    %rcx,%rax
    14ee:	0f b6 00             	movzbl (%rax),%eax
    14f1:	38 c2                	cmp    %al,%dl
    14f3:	75 14                	jne    1509 <_ZN4util6strcmpEPKcS1_+0x51>
    14f5:	8b 45 fc             	mov    -0x4(%rbp),%eax
    14f8:	48 63 d0             	movslq %eax,%rdx
    14fb:	48 8b 45 e0          	mov    -0x20(%rbp),%rax
    14ff:	48 01 d0             	add    %rdx,%rax
    1502:	0f b6 00             	movzbl (%rax),%eax
    1505:	84 c0                	test   %al,%al
    1507:	75 07                	jne    1510 <_ZN4util6strcmpEPKcS1_+0x58>
    1509:	b8 00 00 00 00       	mov    $0x0,%eax
    150e:	eb 1d                	jmp    152d <_ZN4util6strcmpEPKcS1_+0x75>
    1510:	83 45 fc 01          	addl   $0x1,-0x4(%rbp)
    1514:	8b 45 fc             	mov    -0x4(%rbp),%eax
    1517:	48 63 d0             	movslq %eax,%rdx
    151a:	48 8b 45 e8          	mov    -0x18(%rbp),%rax
    151e:	48 01 d0             	add    %rdx,%rax
    1521:	0f b6 00             	movzbl (%rax),%eax
    1524:	84 c0                	test   %al,%al
    1526:	75 a9                	jne    14d1 <_ZN4util6strcmpEPKcS1_+0x19>
    1528:	b8 01 00 00 00       	mov    $0x1,%eax
    152d:	5d                   	pop    %rbp
    152e:	c3                   	ret    
    152f:	90                   	nop

0000000000001530 <_ZN4util10LinkedListINS_6StringIcNS_9AllocatorIcEEEENS2_INS_4NodeIS4_EEEEED1Ev>:
    1530:	f3 0f 1e fa          	endbr64 
    1534:	55                   	push   %rbp
    1535:	48 89 e5             	mov    %rsp,%rbp
    1538:	48 83 ec 10          	sub    $0x10,%rsp
    153c:	48 89 7d f8          	mov    %rdi,-0x8(%rbp)
    1540:	48 8b 45 f8          	mov    -0x8(%rbp),%rax
    1544:	48 83 c0 10          	add    $0x10,%rax
    1548:	48 89 c7             	mov    %rax,%rdi
    154b:	e8 ae 02 00 00       	call   17fe <_ZN4util12SmartPointerINS_4NodeINS_6StringIcNS_9AllocatorIcEEEEEEED1Ev>
    1550:	48 8b 45 f8          	mov    -0x8(%rbp),%rax
    1554:	48 83 c0 08          	add    $0x8,%rax
    1558:	48 89 c7             	mov    %rax,%rdi
    155b:	e8 9e 02 00 00       	call   17fe <_ZN4util12SmartPointerINS_4NodeINS_6StringIcNS_9AllocatorIcEEEEEEED1Ev>
    1560:	90                   	nop
    1561:	c9                   	leave  
    1562:	c3                   	ret    
    1563:	90                   	nop

0000000000001564 <_ZN4util6StringIcNS_9AllocatorIcEEE6substrEic>:
    1564:	f3 0f 1e fa          	endbr64 
    1568:	55                   	push   %rbp
    1569:	48 89 e5             	mov    %rsp,%rbp
    156c:	48 83 ec 70          	sub    $0x70,%rsp
    1570:	48 89 7d a8          	mov    %rdi,-0x58(%rbp)
    1574:	48 89 75 a0          	mov    %rsi,-0x60(%rbp)
    1578:	89 55 9c             	mov    %edx,-0x64(%rbp)
    157b:	89 c8                	mov    %ecx,%eax
    157d:	88 45 98             	mov    %al,-0x68(%rbp)
    1580:	64 48 8b 04 25 28 00 	mov    %fs:0x28,%rax
    1587:	00 00 
    1589:	48 89 45 f8          	mov    %rax,-0x8(%rbp)
    158d:	31 c0                	xor    %eax,%eax
    158f:	0f b6 45 98          	movzbl -0x68(%rbp),%eax
    1593:	0f be d0             	movsbl %al,%edx
    1596:	48 8b 45 a0          	mov    -0x60(%rbp),%rax
    159a:	89 d6                	mov    %edx,%esi
    159c:	48 89 c7             	mov    %rax,%rdi
    159f:	e8 2a 05 00 00       	call   1ace <_ZN4util6StringIcNS_9AllocatorIcEEE7findAllEc>
    15a4:	48 89 45 c0          	mov    %rax,-0x40(%rbp)
    15a8:	48 83 7d c0 00       	cmpq   $0x0,-0x40(%rbp)
    15ad:	0f 84 2f 01 00 00    	je     16e2 <_ZN4util6StringIcNS_9AllocatorIcEEE6substrEic+0x17e>
    15b3:	c7 45 b8 00 00 00 00 	movl   $0x0,-0x48(%rbp)
    15ba:	e9 04 01 00 00       	jmp    16c3 <_ZN4util6StringIcNS_9AllocatorIcEEE6substrEic+0x15f>
    15bf:	8b 45 b8             	mov    -0x48(%rbp),%eax
    15c2:	48 98                	cltq   
    15c4:	48 8d 14 85 00 00 00 	lea    0x0(,%rax,4),%rdx
    15cb:	00 
    15cc:	48 8b 45 c0          	mov    -0x40(%rbp),%rax
    15d0:	48 01 d0             	add    %rdx,%rax
    15d3:	8b 00                	mov    (%rax),%eax
    15d5:	39 45 9c             	cmp    %eax,-0x64(%rbp)
    15d8:	7e 09                	jle    15e3 <_ZN4util6StringIcNS_9AllocatorIcEEE6substrEic+0x7f>
    15da:	83 45 b8 01          	addl   $0x1,-0x48(%rbp)
    15de:	e9 e0 00 00 00       	jmp    16c3 <_ZN4util6StringIcNS_9AllocatorIcEEE6substrEic+0x15f>
    15e3:	8b 45 b8             	mov    -0x48(%rbp),%eax
    15e6:	48 98                	cltq   
    15e8:	48 8d 14 85 00 00 00 	lea    0x0(,%rax,4),%rdx
    15ef:	00 
    15f0:	48 8b 45 c0          	mov    -0x40(%rbp),%rax
    15f4:	48 01 d0             	add    %rdx,%rax
    15f7:	8b 00                	mov    (%rax),%eax
    15f9:	39 45 9c             	cmp    %eax,-0x64(%rbp)
    15fc:	75 18                	jne    1616 <_ZN4util6StringIcNS_9AllocatorIcEEE6substrEic+0xb2>
    15fe:	48 8d 55 98          	lea    -0x68(%rbp),%rdx
    1602:	48 8b 45 a8          	mov    -0x58(%rbp),%rax
    1606:	48 89 d6             	mov    %rdx,%rsi
    1609:	48 89 c7             	mov    %rax,%rdi
    160c:	e8 5b 05 00 00       	call   1b6c <_ZN4util6StringIcNS_9AllocatorIcEEEC1EPKc>
    1611:	e9 d8 00 00 00       	jmp    16ee <_ZN4util6StringIcNS_9AllocatorIcEEE6substrEic+0x18a>
    1616:	48 8b 45 a0          	mov    -0x60(%rbp),%rax
    161a:	48 8d 50 08          	lea    0x8(%rax),%rdx
    161e:	8b 45 b8             	mov    -0x48(%rbp),%eax
    1621:	48 98                	cltq   
    1623:	48 8d 0c 85 00 00 00 	lea    0x0(,%rax,4),%rcx
    162a:	00 
    162b:	48 8b 45 c0          	mov    -0x40(%rbp),%rax
    162f:	48 01 c8             	add    %rcx,%rax
    1632:	8b 00                	mov    (%rax),%eax
    1634:	2b 45 b8             	sub    -0x48(%rbp),%eax
    1637:	89 c6                	mov    %eax,%esi
    1639:	48 89 d7             	mov    %rdx,%rdi
    163c:	e8 57 05 00 00       	call   1b98 <_ZN4util9AllocatorIcE8allocNumEi>
    1641:	48 89 45 c8          	mov    %rax,-0x38(%rbp)
    1645:	8b 45 9c             	mov    -0x64(%rbp),%eax
    1648:	89 45 bc             	mov    %eax,-0x44(%rbp)
    164b:	eb 29                	jmp    1676 <_ZN4util6StringIcNS_9AllocatorIcEEE6substrEic+0x112>
    164d:	48 8b 45 a0          	mov    -0x60(%rbp),%rax
    1651:	48 8b 10             	mov    (%rax),%rdx
    1654:	8b 45 bc             	mov    -0x44(%rbp),%eax
    1657:	48 98                	cltq   
    1659:	48 8d 0c 02          	lea    (%rdx,%rax,1),%rcx
    165d:	8b 45 bc             	mov    -0x44(%rbp),%eax
    1660:	2b 45 9c             	sub    -0x64(%rbp),%eax
    1663:	48 63 d0             	movslq %eax,%rdx
    1666:	48 8b 45 c8          	mov    -0x38(%rbp),%rax
    166a:	48 01 c2             	add    %rax,%rdx
    166d:	0f b6 01             	movzbl (%rcx),%eax
    1670:	88 02                	mov    %al,(%rdx)
    1672:	83 45 bc 01          	addl   $0x1,-0x44(%rbp)
    1676:	8b 45 b8             	mov    -0x48(%rbp),%eax
    1679:	48 98                	cltq   
    167b:	48 8d 14 85 00 00 00 	lea    0x0(,%rax,4),%rdx
    1682:	00 
    1683:	48 8b 45 c0          	mov    -0x40(%rbp),%rax
    1687:	48 01 d0             	add    %rdx,%rax
    168a:	8b 00                	mov    (%rax),%eax
    168c:	39 45 bc             	cmp    %eax,-0x44(%rbp)
    168f:	7c bc                	jl     164d <_ZN4util6StringIcNS_9AllocatorIcEEE6substrEic+0xe9>
    1691:	48 8b 45 a0          	mov    -0x60(%rbp),%rax
    1695:	8b 55 bc             	mov    -0x44(%rbp),%edx
    1698:	89 50 18             	mov    %edx,0x18(%rax)
    169b:	48 8b 55 c8          	mov    -0x38(%rbp),%rdx
    169f:	48 8d 45 d0          	lea    -0x30(%rbp),%rax
    16a3:	48 89 d6             	mov    %rdx,%rsi
    16a6:	48 89 c7             	mov    %rax,%rdi
    16a9:	e8 be 04 00 00       	call   1b6c <_ZN4util6StringIcNS_9AllocatorIcEEEC1EPKc>
    16ae:	48 8d 55 d0          	lea    -0x30(%rbp),%rdx
    16b2:	48 8b 45 a8          	mov    -0x58(%rbp),%rax
    16b6:	48 89 d6             	mov    %rdx,%rsi
    16b9:	48 89 c7             	mov    %rax,%rdi
    16bc:	e8 f9 04 00 00       	call   1bba <_ZN4util6StringIcNS_9AllocatorIcEEEC1EOS3_>
    16c1:	eb 2b                	jmp    16ee <_ZN4util6StringIcNS_9AllocatorIcEEE6substrEic+0x18a>
    16c3:	8b 45 b8             	mov    -0x48(%rbp),%eax
    16c6:	48 98                	cltq   
    16c8:	48 8d 14 85 00 00 00 	lea    0x0(,%rax,4),%rdx
    16cf:	00 
    16d0:	48 8b 45 c0          	mov    -0x40(%rbp),%rax
    16d4:	48 01 d0             	add    %rdx,%rax
    16d7:	8b 00                	mov    (%rax),%eax
    16d9:	83 f8 ff             	cmp    $0xffffffff,%eax
    16dc:	0f 85 dd fe ff ff    	jne    15bf <_ZN4util6StringIcNS_9AllocatorIcEEE6substrEic+0x5b>
    16e2:	48 8b 45 a8          	mov    -0x58(%rbp),%rax
    16e6:	48 89 c7             	mov    %rax,%rdi
    16e9:	e8 f8 04 00 00       	call   1be6 <_ZN4util6StringIcNS_9AllocatorIcEEEC1Ev>
    16ee:	48 8b 45 f8          	mov    -0x8(%rbp),%rax
    16f2:	64 48 2b 04 25 28 00 	sub    %fs:0x28,%rax
    16f9:	00 00 
    16fb:	74 05                	je     1702 <_ZN4util6StringIcNS_9AllocatorIcEEE6substrEic+0x19e>
    16fd:	e8 1e fa ff ff       	call   1120 <__stack_chk_fail@plt>
    1702:	48 8b 45 a8          	mov    -0x58(%rbp),%rax
    1706:	c9                   	leave  
    1707:	c3                   	ret    

0000000000001708 <_ZN4util10LinkedListINS_6StringIcNS_9AllocatorIcEEEENS2_INS_4NodeIS4_EEEEEC1Ev>:
    1708:	f3 0f 1e fa          	endbr64 
    170c:	55                   	push   %rbp
    170d:	48 89 e5             	mov    %rsp,%rbp
    1710:	48 83 ec 10          	sub    $0x10,%rsp
    1714:	48 89 7d f8          	mov    %rdi,-0x8(%rbp)
    1718:	48 8b 45 f8          	mov    -0x8(%rbp),%rax
    171c:	48 89 c7             	mov    %rax,%rdi
    171f:	e8 10 05 00 00       	call   1c34 <_ZN4util10LinkedListINS_6StringIcNS_9AllocatorIcEEEENS2_INS_4NodeIS4_EEEEE7getSizeEv>
    1724:	48 8b 55 f8          	mov    -0x8(%rbp),%rdx
    1728:	48 89 02             	mov    %rax,(%rdx)
    172b:	48 8b 45 f8          	mov    -0x8(%rbp),%rax
    172f:	48 83 c0 08          	add    $0x8,%rax
    1733:	be 00 00 00 00       	mov    $0x0,%esi
    1738:	48 89 c7             	mov    %rax,%rdi
    173b:	e8 86 05 00 00       	call   1cc6 <_ZN4util12SmartPointerINS_4NodeINS_6StringIcNS_9AllocatorIcEEEEEEEC1EPS6_>
    1740:	48 8b 45 f8          	mov    -0x8(%rbp),%rax
    1744:	48 83 c0 10          	add    $0x10,%rax
    1748:	be 00 00 00 00       	mov    $0x0,%esi
    174d:	48 89 c7             	mov    %rax,%rdi
    1750:	e8 71 05 00 00       	call   1cc6 <_ZN4util12SmartPointerINS_4NodeINS_6StringIcNS_9AllocatorIcEEEEEEEC1EPS6_>
    1755:	48 8b 45 f8          	mov    -0x8(%rbp),%rax
    1759:	48 83 c0 08          	add    $0x8,%rax
    175d:	48 89 c7             	mov    %rax,%rdi
    1760:	e8 7f 05 00 00       	call   1ce4 <_ZN4util12SmartPointerINS_4NodeINS_6StringIcNS_9AllocatorIcEEEEEEEptEv>
    1765:	be 00 00 00 00       	mov    $0x0,%esi
    176a:	48 89 c7             	mov    %rax,%rdi
    176d:	e8 88 05 00 00       	call   1cfa <_ZN4util12SmartPointerINS_4NodeINS_6StringIcNS_9AllocatorIcEEEEEEEaSEPS6_>
    1772:	48 8b 45 f8          	mov    -0x8(%rbp),%rax
    1776:	48 83 c0 08          	add    $0x8,%rax
    177a:	48 89 c7             	mov    %rax,%rdi
    177d:	e8 62 05 00 00       	call   1ce4 <_ZN4util12SmartPointerINS_4NodeINS_6StringIcNS_9AllocatorIcEEEEEEEptEv>
    1782:	48 8b 55 f8          	mov    -0x8(%rbp),%rdx
    1786:	48 8b 52 10          	mov    0x10(%rdx),%rdx
    178a:	48 89 50 28          	mov    %rdx,0x28(%rax)
    178e:	48 8b 45 f8          	mov    -0x8(%rbp),%rax
    1792:	48 83 c0 10          	add    $0x10,%rax
    1796:	48 89 c7             	mov    %rax,%rdi
    1799:	e8 46 05 00 00       	call   1ce4 <_ZN4util12SmartPointerINS_4NodeINS_6StringIcNS_9AllocatorIcEEEEEEEptEv>
    179e:	48 8b 55 f8          	mov    -0x8(%rbp),%rdx
    17a2:	48 8b 52 08          	mov    0x8(%rdx),%rdx
    17a6:	48 89 10             	mov    %rdx,(%rax)
    17a9:	48 8b 45 f8          	mov    -0x8(%rbp),%rax
    17ad:	48 83 c0 10          	add    $0x10,%rax
    17b1:	48 89 c7             	mov    %rax,%rdi
    17b4:	e8 2b 05 00 00       	call   1ce4 <_ZN4util12SmartPointerINS_4NodeINS_6StringIcNS_9AllocatorIcEEEEEEEptEv>
    17b9:	48 83 c0 28          	add    $0x28,%rax
    17bd:	be 00 00 00 00       	mov    $0x0,%esi
    17c2:	48 89 c7             	mov    %rax,%rdi
    17c5:	e8 30 05 00 00       	call   1cfa <_ZN4util12SmartPointerINS_4NodeINS_6StringIcNS_9AllocatorIcEEEEEEEaSEPS6_>
    17ca:	90                   	nop
    17cb:	c9                   	leave  
    17cc:	c3                   	ret    
    17cd:	90                   	nop

00000000000017ce <_ZN4util4NodeINS_6StringIcNS_9AllocatorIcEEEEED1Ev>:
    17ce:	f3 0f 1e fa          	endbr64 
    17d2:	55                   	push   %rbp
    17d3:	48 89 e5             	mov    %rsp,%rbp
    17d6:	48 83 ec 10          	sub    $0x10,%rsp
    17da:	48 89 7d f8          	mov    %rdi,-0x8(%rbp)
    17de:	48 8b 45 f8          	mov    -0x8(%rbp),%rax
    17e2:	48 83 c0 28          	add    $0x28,%rax
    17e6:	48 89 c7             	mov    %rax,%rdi
    17e9:	e8 10 00 00 00       	call   17fe <_ZN4util12SmartPointerINS_4NodeINS_6StringIcNS_9AllocatorIcEEEEEEED1Ev>
    17ee:	48 8b 45 f8          	mov    -0x8(%rbp),%rax
    17f2:	48 89 c7             	mov    %rax,%rdi
    17f5:	e8 04 00 00 00       	call   17fe <_ZN4util12SmartPointerINS_4NodeINS_6StringIcNS_9AllocatorIcEEEEEEED1Ev>
    17fa:	90                   	nop
    17fb:	c9                   	leave  
    17fc:	c3                   	ret    
    17fd:	90                   	nop

00000000000017fe <_ZN4util12SmartPointerINS_4NodeINS_6StringIcNS_9AllocatorIcEEEEEEED1Ev>:
    17fe:	f3 0f 1e fa          	endbr64 
    1802:	55                   	push   %rbp
    1803:	48 89 e5             	mov    %rsp,%rbp
    1806:	53                   	push   %rbx
    1807:	48 83 ec 18          	sub    $0x18,%rsp
    180b:	48 89 7d e8          	mov    %rdi,-0x18(%rbp)
    180f:	48 8b 45 e8          	mov    -0x18(%rbp),%rax
    1813:	48 8b 00             	mov    (%rax),%rax
    1816:	48 85 c0             	test   %rax,%rax
    1819:	74 21                	je     183c <_ZN4util12SmartPointerINS_4NodeINS_6StringIcNS_9AllocatorIcEEEEEEED1Ev+0x3e>
    181b:	48 8b 45 e8          	mov    -0x18(%rbp),%rax
    181f:	48 8b 18             	mov    (%rax),%rbx
    1822:	48 85 db             	test   %rbx,%rbx
    1825:	74 15                	je     183c <_ZN4util12SmartPointerINS_4NodeINS_6StringIcNS_9AllocatorIcEEEEEEED1Ev+0x3e>
    1827:	48 89 df             	mov    %rbx,%rdi
    182a:	e8 9f ff ff ff       	call   17ce <_ZN4util4NodeINS_6StringIcNS_9AllocatorIcEEEEED1Ev>
    182f:	be 30 00 00 00       	mov    $0x30,%esi
    1834:	48 89 df             	mov    %rbx,%rdi
    1837:	e8 d4 f8 ff ff       	call   1110 <_ZdlPvm@plt>
    183c:	90                   	nop
    183d:	48 8b 5d f8          	mov    -0x8(%rbp),%rbx
    1841:	c9                   	leave  
    1842:	c3                   	ret    
    1843:	90                   	nop

0000000000001844 <_ZN4util6StringIcNS_9AllocatorIcEEEC1ERS3_>:
    1844:	f3 0f 1e fa          	endbr64 
    1848:	55                   	push   %rbp
    1849:	48 89 e5             	mov    %rsp,%rbp
    184c:	48 83 ec 10          	sub    $0x10,%rsp
    1850:	48 89 7d f8          	mov    %rdi,-0x8(%rbp)
    1854:	48 89 75 f0          	mov    %rsi,-0x10(%rbp)
    1858:	48 8b 45 f8          	mov    -0x8(%rbp),%rax
    185c:	48 89 c7             	mov    %rax,%rdi
    185f:	e8 6e 01 00 00       	call   19d2 <_ZN4util6StringIcNS_9AllocatorIcEEE7getSizeEv>
    1864:	48 8b 55 f8          	mov    -0x8(%rbp),%rdx
    1868:	48 89 42 10          	mov    %rax,0x10(%rdx)
    186c:	90                   	nop
    186d:	c9                   	leave  
    186e:	c3                   	ret    
    186f:	90                   	nop

0000000000001870 <_ZN4util10LinkedListINS_6StringIcNS_9AllocatorIcEEEENS2_INS_4NodeIS4_EEEEE6appendES4_>:
    1870:	f3 0f 1e fa          	endbr64 
    1874:	55                   	push   %rbp
    1875:	48 89 e5             	mov    %rsp,%rbp
    1878:	41 55                	push   %r13
    187a:	41 54                	push   %r12
    187c:	53                   	push   %rbx
    187d:	48 83 ec 78          	sub    $0x78,%rsp
    1881:	48 89 7d 88          	mov    %rdi,-0x78(%rbp)
    1885:	48 89 75 80          	mov    %rsi,-0x80(%rbp)
    1889:	64 48 8b 04 25 28 00 	mov    %fs:0x28,%rax
    1890:	00 00 
    1892:	48 89 45 d8          	mov    %rax,-0x28(%rbp)
    1896:	31 c0                	xor    %eax,%eax
    1898:	48 8b 55 80          	mov    -0x80(%rbp),%rdx
    189c:	48 8d 45 b0          	lea    -0x50(%rbp),%rax
    18a0:	48 89 d6             	mov    %rdx,%rsi
    18a3:	48 89 c7             	mov    %rax,%rdi
    18a6:	e8 99 ff ff ff       	call   1844 <_ZN4util6StringIcNS_9AllocatorIcEEEC1ERS3_>
    18ab:	48 8d 5d b0          	lea    -0x50(%rbp),%rbx
    18af:	48 8b 45 88          	mov    -0x78(%rbp),%rax
    18b3:	48 83 c0 10          	add    $0x10,%rax
    18b7:	48 89 c7             	mov    %rax,%rdi
    18ba:	e8 25 04 00 00       	call   1ce4 <_ZN4util12SmartPointerINS_4NodeINS_6StringIcNS_9AllocatorIcEEEEEEEptEv>
    18bf:	48 8b 00             	mov    (%rax),%rax
    18c2:	48 89 45 a0          	mov    %rax,-0x60(%rbp)
    18c6:	4c 8d 65 a0          	lea    -0x60(%rbp),%r12
    18ca:	48 8b 45 88          	mov    -0x78(%rbp),%rax
    18ce:	48 8b 40 10          	mov    0x10(%rax),%rax
    18d2:	48 89 45 a8          	mov    %rax,-0x58(%rbp)
    18d6:	4c 8d 6d a8          	lea    -0x58(%rbp),%r13
    18da:	bf 30 00 00 00       	mov    $0x30,%edi
    18df:	e8 1c f8 ff ff       	call   1100 <_Znwm@plt>
    18e4:	48 89 c7             	mov    %rax,%rdi
    18e7:	4c 89 e9             	mov    %r13,%rcx
    18ea:	4c 89 e2             	mov    %r12,%rdx
    18ed:	48 89 de             	mov    %rbx,%rsi
    18f0:	48 89 bd 78 ff ff ff 	mov    %rdi,-0x88(%rbp)
    18f7:	e8 1c 04 00 00       	call   1d18 <_ZN4util4NodeINS_6StringIcNS_9AllocatorIcEEEEEC1ES4_NS_12SmartPointerIS5_EES7_>
    18fc:	48 8d 45 98          	lea    -0x68(%rbp),%rax
    1900:	48 8b b5 78 ff ff ff 	mov    -0x88(%rbp),%rsi
    1907:	48 89 c7             	mov    %rax,%rdi
    190a:	e8 b7 03 00 00       	call   1cc6 <_ZN4util12SmartPointerINS_4NodeINS_6StringIcNS_9AllocatorIcEEEEEEEC1EPS6_>
    190f:	48 8d 45 a8          	lea    -0x58(%rbp),%rax
    1913:	48 89 c7             	mov    %rax,%rdi
    1916:	e8 e3 fe ff ff       	call   17fe <_ZN4util12SmartPointerINS_4NodeINS_6StringIcNS_9AllocatorIcEEEEEEED1Ev>
    191b:	48 8d 45 a0          	lea    -0x60(%rbp),%rax
    191f:	48 89 c7             	mov    %rax,%rdi
    1922:	e8 d7 fe ff ff       	call   17fe <_ZN4util12SmartPointerINS_4NodeINS_6StringIcNS_9AllocatorIcEEEEEEED1Ev>
    1927:	48 8b 45 88          	mov    -0x78(%rbp),%rax
    192b:	48 83 c0 10          	add    $0x10,%rax
    192f:	48 89 c7             	mov    %rax,%rdi
    1932:	e8 ad 03 00 00       	call   1ce4 <_ZN4util12SmartPointerINS_4NodeINS_6StringIcNS_9AllocatorIcEEEEEEEptEv>
    1937:	48 89 c7             	mov    %rax,%rdi
    193a:	e8 a5 03 00 00       	call   1ce4 <_ZN4util12SmartPointerINS_4NodeINS_6StringIcNS_9AllocatorIcEEEEEEEptEv>
    193f:	48 8b 55 98          	mov    -0x68(%rbp),%rdx
    1943:	48 89 50 28          	mov    %rdx,0x28(%rax)
    1947:	48 8b 45 88          	mov    -0x78(%rbp),%rax
    194b:	48 83 c0 10          	add    $0x10,%rax
    194f:	48 89 c7             	mov    %rax,%rdi
    1952:	e8 8d 03 00 00       	call   1ce4 <_ZN4util12SmartPointerINS_4NodeINS_6StringIcNS_9AllocatorIcEEEEEEEptEv>
    1957:	48 8b 55 98          	mov    -0x68(%rbp),%rdx
    195b:	48 89 10             	mov    %rdx,(%rax)
    195e:	90                   	nop
    195f:	48 8d 45 98          	lea    -0x68(%rbp),%rax
    1963:	48 89 c7             	mov    %rax,%rdi
    1966:	e8 93 fe ff ff       	call   17fe <_ZN4util12SmartPointerINS_4NodeINS_6StringIcNS_9AllocatorIcEEEEEEED1Ev>
    196b:	90                   	nop
    196c:	48 8b 45 d8          	mov    -0x28(%rbp),%rax
    1970:	64 48 2b 04 25 28 00 	sub    %fs:0x28,%rax
    1977:	00 00 
    1979:	74 4b                	je     19c6 <_ZN4util10LinkedListINS_6StringIcNS_9AllocatorIcEEEENS2_INS_4NodeIS4_EEEEE6appendES4_+0x156>
    197b:	eb 44                	jmp    19c1 <_ZN4util10LinkedListINS_6StringIcNS_9AllocatorIcEEEENS2_INS_4NodeIS4_EEEEE6appendES4_+0x151>
    197d:	f3 0f 1e fa          	endbr64 
    1981:	48 89 c3             	mov    %rax,%rbx
    1984:	be 30 00 00 00       	mov    $0x30,%esi
    1989:	48 8b bd 78 ff ff ff 	mov    -0x88(%rbp),%rdi
    1990:	e8 7b f7 ff ff       	call   1110 <_ZdlPvm@plt>
    1995:	eb 07                	jmp    199e <_ZN4util10LinkedListINS_6StringIcNS_9AllocatorIcEEEENS2_INS_4NodeIS4_EEEEE6appendES4_+0x12e>
    1997:	f3 0f 1e fa          	endbr64 
    199b:	48 89 c3             	mov    %rax,%rbx
    199e:	48 8d 45 a8          	lea    -0x58(%rbp),%rax
    19a2:	48 89 c7             	mov    %rax,%rdi
    19a5:	e8 54 fe ff ff       	call   17fe <_ZN4util12SmartPointerINS_4NodeINS_6StringIcNS_9AllocatorIcEEEEEEED1Ev>
    19aa:	48 8d 45 a0          	lea    -0x60(%rbp),%rax
    19ae:	48 89 c7             	mov    %rax,%rdi
    19b1:	e8 48 fe ff ff       	call   17fe <_ZN4util12SmartPointerINS_4NodeINS_6StringIcNS_9AllocatorIcEEEEEEED1Ev>
    19b6:	48 89 d8             	mov    %rbx,%rax
    19b9:	48 89 c7             	mov    %rax,%rdi
    19bc:	e8 8f f7 ff ff       	call   1150 <_Unwind_Resume@plt>
    19c1:	e8 5a f7 ff ff       	call   1120 <__stack_chk_fail@plt>
    19c6:	48 83 c4 78          	add    $0x78,%rsp
    19ca:	5b                   	pop    %rbx
    19cb:	41 5c                	pop    %r12
    19cd:	41 5d                	pop    %r13
    19cf:	5d                   	pop    %rbp
    19d0:	c3                   	ret    
    19d1:	90                   	nop

00000000000019d2 <_ZN4util6StringIcNS_9AllocatorIcEEE7getSizeEv>:
    19d2:	f3 0f 1e fa          	endbr64 
    19d6:	55                   	push   %rbp
    19d7:	48 89 e5             	mov    %rsp,%rbp
    19da:	48 89 7d e8          	mov    %rdi,-0x18(%rbp)
    19de:	c7 45 fc 00 00 00 00 	movl   $0x0,-0x4(%rbp)
    19e5:	c7 45 f8 00 00 00 00 	movl   $0x0,-0x8(%rbp)
    19ec:	eb 04                	jmp    19f2 <_ZN4util6StringIcNS_9AllocatorIcEEE7getSizeEv+0x20>
    19ee:	83 45 f8 01          	addl   $0x1,-0x8(%rbp)
    19f2:	48 8b 45 e8          	mov    -0x18(%rbp),%rax
    19f6:	48 8b 10             	mov    (%rax),%rdx
    19f9:	8b 45 f8             	mov    -0x8(%rbp),%eax
    19fc:	48 98                	cltq   
    19fe:	48 01 d0             	add    %rdx,%rax
    1a01:	0f b6 00             	movzbl (%rax),%eax
    1a04:	84 c0                	test   %al,%al
    1a06:	75 e6                	jne    19ee <_ZN4util6StringIcNS_9AllocatorIcEEE7getSizeEv+0x1c>
    1a08:	8b 45 fc             	mov    -0x4(%rbp),%eax
    1a0b:	48 98                	cltq   
    1a0d:	5d                   	pop    %rbp
    1a0e:	c3                   	ret    
    1a0f:	90                   	nop

0000000000001a10 <_ZN4util6StringIcNS_9AllocatorIcEEEaSERKS3_>:
    1a10:	f3 0f 1e fa          	endbr64 
    1a14:	55                   	push   %rbp
    1a15:	48 89 e5             	mov    %rsp,%rbp
    1a18:	48 83 ec 10          	sub    $0x10,%rsp
    1a1c:	48 89 7d f8          	mov    %rdi,-0x8(%rbp)
    1a20:	48 89 75 f0          	mov    %rsi,-0x10(%rbp)
    1a24:	48 8b 45 f0          	mov    -0x10(%rbp),%rax
    1a28:	48 89 c7             	mov    %rax,%rdi
    1a2b:	e8 00 f9 ff ff       	call   1330 <_ZNK4util6StringIcNS_9AllocatorIcEEE6asCstrEv>
    1a30:	48 8b 55 f8          	mov    -0x8(%rbp),%rdx
    1a34:	48 89 02             	mov    %rax,(%rdx)
    1a37:	90                   	nop
    1a38:	c9                   	leave  
    1a39:	c3                   	ret    

0000000000001a3a <_ZN4util6StringIcNS_9AllocatorIcEEE10startsWithEPKc>:
    1a3a:	f3 0f 1e fa          	endbr64 
    1a3e:	55                   	push   %rbp
    1a3f:	48 89 e5             	mov    %rsp,%rbp
    1a42:	48 83 ec 50          	sub    $0x50,%rsp
    1a46:	48 89 7d b8          	mov    %rdi,-0x48(%rbp)
    1a4a:	48 89 75 b0          	mov    %rsi,-0x50(%rbp)
    1a4e:	64 48 8b 04 25 28 00 	mov    %fs:0x28,%rax
    1a55:	00 00 
    1a57:	48 89 45 f8          	mov    %rax,-0x8(%rbp)
    1a5b:	31 c0                	xor    %eax,%eax
    1a5d:	48 8b 55 b0          	mov    -0x50(%rbp),%rdx
    1a61:	48 8b 45 b8          	mov    -0x48(%rbp),%rax
    1a65:	48 89 d6             	mov    %rdx,%rsi
    1a68:	48 89 c7             	mov    %rax,%rdi
    1a6b:	e8 56 03 00 00       	call   1dc6 <_ZN4util6StringIcNS_9AllocatorIcEEE14getNonTermSizeEPc>
    1a70:	89 45 cc             	mov    %eax,-0x34(%rbp)
    1a73:	8b 55 cc             	mov    -0x34(%rbp),%edx
    1a76:	48 8b 45 b8          	mov    -0x48(%rbp),%rax
    1a7a:	be 00 00 00 00       	mov    $0x0,%esi
    1a7f:	48 89 c7             	mov    %rax,%rdi
    1a82:	e8 73 03 00 00       	call   1dfa <_ZN4util6StringIcNS_9AllocatorIcEEE6substrEii>
    1a87:	48 89 c2             	mov    %rax,%rdx
    1a8a:	48 8d 45 d0          	lea    -0x30(%rbp),%rax
    1a8e:	48 89 d6             	mov    %rdx,%rsi
    1a91:	48 89 c7             	mov    %rax,%rdi
    1a94:	e8 d3 00 00 00       	call   1b6c <_ZN4util6StringIcNS_9AllocatorIcEEEC1EPKc>
    1a99:	48 8d 45 d0          	lea    -0x30(%rbp),%rax
    1a9d:	48 89 c7             	mov    %rax,%rdi
    1aa0:	e8 c9 03 00 00       	call   1e6e <_ZN4util6StringIcNS_9AllocatorIcEEE6asCStrEv>
    1aa5:	48 89 c2             	mov    %rax,%rdx
    1aa8:	48 8b 45 b0          	mov    -0x50(%rbp),%rax
    1aac:	48 89 c6             	mov    %rax,%rsi
    1aaf:	48 89 d7             	mov    %rdx,%rdi
    1ab2:	e8 01 fa ff ff       	call   14b8 <_ZN4util6strcmpEPKcS1_>
    1ab7:	48 8b 55 f8          	mov    -0x8(%rbp),%rdx
    1abb:	64 48 2b 14 25 28 00 	sub    %fs:0x28,%rdx
    1ac2:	00 00 
    1ac4:	74 05                	je     1acb <_ZN4util6StringIcNS_9AllocatorIcEEE10startsWithEPKc+0x91>
    1ac6:	e8 55 f6 ff ff       	call   1120 <__stack_chk_fail@plt>
    1acb:	c9                   	leave  
    1acc:	c3                   	ret    
    1acd:	90                   	nop

0000000000001ace <_ZN4util6StringIcNS_9AllocatorIcEEE7findAllEc>:
    1ace:	f3 0f 1e fa          	endbr64 
    1ad2:	55                   	push   %rbp
    1ad3:	48 89 e5             	mov    %rsp,%rbp
    1ad6:	48 89 7d e8          	mov    %rdi,-0x18(%rbp)
    1ada:	89 f0                	mov    %esi,%eax
    1adc:	88 45 e4             	mov    %al,-0x1c(%rbp)
    1adf:	c7 45 f0 00 00 00 00 	movl   $0x0,-0x10(%rbp)
    1ae6:	c7 45 f4 00 00 00 00 	movl   $0x0,-0xc(%rbp)
    1aed:	eb 38                	jmp    1b27 <_ZN4util6StringIcNS_9AllocatorIcEEE7findAllEc+0x59>
    1aef:	48 8b 45 e8          	mov    -0x18(%rbp),%rax
    1af3:	48 8b 10             	mov    (%rax),%rdx
    1af6:	8b 45 f4             	mov    -0xc(%rbp),%eax
    1af9:	48 98                	cltq   
    1afb:	48 01 d0             	add    %rdx,%rax
    1afe:	0f b6 00             	movzbl (%rax),%eax
    1b01:	38 45 e4             	cmp    %al,-0x1c(%rbp)
    1b04:	75 1d                	jne    1b23 <_ZN4util6StringIcNS_9AllocatorIcEEE7findAllEc+0x55>
    1b06:	8b 45 f0             	mov    -0x10(%rbp),%eax
    1b09:	48 98                	cltq   
    1b0b:	48 8d 14 85 00 00 00 	lea    0x0(,%rax,4),%rdx
    1b12:	00 
    1b13:	48 8b 45 f8          	mov    -0x8(%rbp),%rax
    1b17:	48 01 c2             	add    %rax,%rdx
    1b1a:	8b 45 f4             	mov    -0xc(%rbp),%eax
    1b1d:	89 02                	mov    %eax,(%rdx)
    1b1f:	83 45 f0 01          	addl   $0x1,-0x10(%rbp)
    1b23:	83 45 f4 01          	addl   $0x1,-0xc(%rbp)
    1b27:	8b 45 f4             	mov    -0xc(%rbp),%eax
    1b2a:	48 63 d0             	movslq %eax,%rdx
    1b2d:	48 8b 45 e8          	mov    -0x18(%rbp),%rax
    1b31:	48 8b 40 10          	mov    0x10(%rax),%rax
    1b35:	48 39 c2             	cmp    %rax,%rdx
    1b38:	72 b5                	jb     1aef <_ZN4util6StringIcNS_9AllocatorIcEEE7findAllEc+0x21>
    1b3a:	83 7d f0 00          	cmpl   $0x0,-0x10(%rbp)
    1b3e:	75 07                	jne    1b47 <_ZN4util6StringIcNS_9AllocatorIcEEE7findAllEc+0x79>
    1b40:	b8 00 00 00 00       	mov    $0x0,%eax
    1b45:	eb 22                	jmp    1b69 <_ZN4util6StringIcNS_9AllocatorIcEEE7findAllEc+0x9b>
    1b47:	8b 45 f0             	mov    -0x10(%rbp),%eax
    1b4a:	48 98                	cltq   
    1b4c:	48 83 c0 01          	add    $0x1,%rax
    1b50:	48 8d 14 85 00 00 00 	lea    0x0(,%rax,4),%rdx
    1b57:	00 
    1b58:	48 8b 45 f8          	mov    -0x8(%rbp),%rax
    1b5c:	48 01 d0             	add    %rdx,%rax
    1b5f:	c7 00 ff ff ff ff    	movl   $0xffffffff,(%rax)
    1b65:	48 8b 45 f8          	mov    -0x8(%rbp),%rax
    1b69:	5d                   	pop    %rbp
    1b6a:	c3                   	ret    
    1b6b:	90                   	nop

0000000000001b6c <_ZN4util6StringIcNS_9AllocatorIcEEEC1EPKc>:
    1b6c:	f3 0f 1e fa          	endbr64 
    1b70:	55                   	push   %rbp
    1b71:	48 89 e5             	mov    %rsp,%rbp
    1b74:	48 83 ec 10          	sub    $0x10,%rsp
    1b78:	48 89 7d f8          	mov    %rdi,-0x8(%rbp)
    1b7c:	48 89 75 f0          	mov    %rsi,-0x10(%rbp)
    1b80:	48 8b 45 f8          	mov    -0x8(%rbp),%rax
    1b84:	48 89 c7             	mov    %rax,%rdi
    1b87:	e8 46 fe ff ff       	call   19d2 <_ZN4util6StringIcNS_9AllocatorIcEEE7getSizeEv>
    1b8c:	48 8b 55 f8          	mov    -0x8(%rbp),%rdx
    1b90:	48 89 42 10          	mov    %rax,0x10(%rdx)
    1b94:	90                   	nop
    1b95:	c9                   	leave  
    1b96:	c3                   	ret    
    1b97:	90                   	nop

0000000000001b98 <_ZN4util9AllocatorIcE8allocNumEi>:
    1b98:	f3 0f 1e fa          	endbr64 
    1b9c:	55                   	push   %rbp
    1b9d:	48 89 e5             	mov    %rsp,%rbp
    1ba0:	48 83 ec 10          	sub    $0x10,%rsp
    1ba4:	48 89 7d f8          	mov    %rdi,-0x8(%rbp)
    1ba8:	89 75 f4             	mov    %esi,-0xc(%rbp)
    1bab:	8b 45 f4             	mov    -0xc(%rbp),%eax
    1bae:	48 98                	cltq   
    1bb0:	48 89 c7             	mov    %rax,%rdi
    1bb3:	e8 18 f5 ff ff       	call   10d0 <_Znam@plt>
    1bb8:	c9                   	leave  
    1bb9:	c3                   	ret    

0000000000001bba <_ZN4util6StringIcNS_9AllocatorIcEEEC1EOS3_>:
    1bba:	f3 0f 1e fa          	endbr64 
    1bbe:	55                   	push   %rbp
    1bbf:	48 89 e5             	mov    %rsp,%rbp
    1bc2:	48 83 ec 10          	sub    $0x10,%rsp
    1bc6:	48 89 7d f8          	mov    %rdi,-0x8(%rbp)
    1bca:	48 89 75 f0          	mov    %rsi,-0x10(%rbp)
    1bce:	48 8b 45 f8          	mov    -0x8(%rbp),%rax
    1bd2:	48 89 c7             	mov    %rax,%rdi
    1bd5:	e8 f8 fd ff ff       	call   19d2 <_ZN4util6StringIcNS_9AllocatorIcEEE7getSizeEv>
    1bda:	48 8b 55 f8          	mov    -0x8(%rbp),%rdx
    1bde:	48 89 42 10          	mov    %rax,0x10(%rdx)
    1be2:	90                   	nop
    1be3:	c9                   	leave  
    1be4:	c3                   	ret    
    1be5:	90                   	nop

0000000000001be6 <_ZN4util6StringIcNS_9AllocatorIcEEEC1Ev>:
    1be6:	f3 0f 1e fa          	endbr64 
    1bea:	55                   	push   %rbp
    1beb:	48 89 e5             	mov    %rsp,%rbp
    1bee:	48 83 ec 10          	sub    $0x10,%rsp
    1bf2:	48 89 7d f8          	mov    %rdi,-0x8(%rbp)
    1bf6:	48 8b 45 f8          	mov    -0x8(%rbp),%rax
    1bfa:	48 89 c7             	mov    %rax,%rdi
    1bfd:	e8 d0 fd ff ff       	call   19d2 <_ZN4util6StringIcNS_9AllocatorIcEEE7getSizeEv>
    1c02:	48 8b 55 f8          	mov    -0x8(%rbp),%rdx
    1c06:	48 89 42 10          	mov    %rax,0x10(%rdx)
    1c0a:	48 8b 45 f8          	mov    -0x8(%rbp),%rax
    1c0e:	48 83 c0 08          	add    $0x8,%rax
    1c12:	be 01 00 00 00       	mov    $0x1,%esi
    1c17:	48 89 c7             	mov    %rax,%rdi
    1c1a:	e8 79 ff ff ff       	call   1b98 <_ZN4util9AllocatorIcE8allocNumEi>
    1c1f:	48 8b 55 f8          	mov    -0x8(%rbp),%rdx
    1c23:	48 89 02             	mov    %rax,(%rdx)
    1c26:	48 8b 45 f8          	mov    -0x8(%rbp),%rax
    1c2a:	48 8b 00             	mov    (%rax),%rax
    1c2d:	c6 00 00             	movb   $0x0,(%rax)
    1c30:	90                   	nop
    1c31:	c9                   	leave  
    1c32:	c3                   	ret    
    1c33:	90                   	nop

0000000000001c34 <_ZN4util10LinkedListINS_6StringIcNS_9AllocatorIcEEEENS2_INS_4NodeIS4_EEEEE7getSizeEv>:
    1c34:	f3 0f 1e fa          	endbr64 
    1c38:	55                   	push   %rbp
    1c39:	48 89 e5             	mov    %rsp,%rbp
    1c3c:	53                   	push   %rbx
    1c3d:	48 83 ec 38          	sub    $0x38,%rsp
    1c41:	48 89 7d c8          	mov    %rdi,-0x38(%rbp)
    1c45:	64 48 8b 04 25 28 00 	mov    %fs:0x28,%rax
    1c4c:	00 00 
    1c4e:	48 89 45 e8          	mov    %rax,-0x18(%rbp)
    1c52:	31 c0                	xor    %eax,%eax
    1c54:	48 8b 45 c8          	mov    -0x38(%rbp),%rax
    1c58:	48 8b 40 08          	mov    0x8(%rax),%rax
    1c5c:	48 89 45 e0          	mov    %rax,-0x20(%rbp)
    1c60:	c7 45 dc 00 00 00 00 	movl   $0x0,-0x24(%rbp)
    1c67:	eb 18                	jmp    1c81 <_ZN4util10LinkedListINS_6StringIcNS_9AllocatorIcEEEENS2_INS_4NodeIS4_EEEEE7getSizeEv+0x4d>
    1c69:	48 8d 45 e0          	lea    -0x20(%rbp),%rax
    1c6d:	48 89 c7             	mov    %rax,%rdi
    1c70:	e8 6f 00 00 00       	call   1ce4 <_ZN4util12SmartPointerINS_4NodeINS_6StringIcNS_9AllocatorIcEEEEEEEptEv>
    1c75:	48 8b 40 28          	mov    0x28(%rax),%rax
    1c79:	48 89 45 e0          	mov    %rax,-0x20(%rbp)
    1c7d:	83 45 dc 01          	addl   $0x1,-0x24(%rbp)
    1c81:	48 8d 45 e0          	lea    -0x20(%rbp),%rax
    1c85:	48 89 c7             	mov    %rax,%rdi
    1c88:	e8 f7 01 00 00       	call   1e84 <_ZN4util12SmartPointerINS_4NodeINS_6StringIcNS_9AllocatorIcEEEEEEE3getEv>
    1c8d:	48 85 c0             	test   %rax,%rax
    1c90:	0f 95 c0             	setne  %al
    1c93:	84 c0                	test   %al,%al
    1c95:	75 d2                	jne    1c69 <_ZN4util10LinkedListINS_6StringIcNS_9AllocatorIcEEEENS2_INS_4NodeIS4_EEEEE7getSizeEv+0x35>
    1c97:	8b 45 dc             	mov    -0x24(%rbp),%eax
    1c9a:	48 63 d8             	movslq %eax,%rbx
    1c9d:	48 8d 45 e0          	lea    -0x20(%rbp),%rax
    1ca1:	48 89 c7             	mov    %rax,%rdi
    1ca4:	e8 55 fb ff ff       	call   17fe <_ZN4util12SmartPointerINS_4NodeINS_6StringIcNS_9AllocatorIcEEEEEEED1Ev>
    1ca9:	48 89 d8             	mov    %rbx,%rax
    1cac:	48 8b 55 e8          	mov    -0x18(%rbp),%rdx
    1cb0:	64 48 2b 14 25 28 00 	sub    %fs:0x28,%rdx
    1cb7:	00 00 
    1cb9:	74 05                	je     1cc0 <_ZN4util10LinkedListINS_6StringIcNS_9AllocatorIcEEEENS2_INS_4NodeIS4_EEEEE7getSizeEv+0x8c>
    1cbb:	e8 60 f4 ff ff       	call   1120 <__stack_chk_fail@plt>
    1cc0:	48 8b 5d f8          	mov    -0x8(%rbp),%rbx
    1cc4:	c9                   	leave  
    1cc5:	c3                   	ret    

0000000000001cc6 <_ZN4util12SmartPointerINS_4NodeINS_6StringIcNS_9AllocatorIcEEEEEEEC1EPS6_>:
    1cc6:	f3 0f 1e fa          	endbr64 
    1cca:	55                   	push   %rbp
    1ccb:	48 89 e5             	mov    %rsp,%rbp
    1cce:	48 89 7d f8          	mov    %rdi,-0x8(%rbp)
    1cd2:	48 89 75 f0          	mov    %rsi,-0x10(%rbp)
    1cd6:	48 8b 45 f8          	mov    -0x8(%rbp),%rax
    1cda:	48 8b 55 f0          	mov    -0x10(%rbp),%rdx
    1cde:	48 89 10             	mov    %rdx,(%rax)
    1ce1:	90                   	nop
    1ce2:	5d                   	pop    %rbp
    1ce3:	c3                   	ret    

0000000000001ce4 <_ZN4util12SmartPointerINS_4NodeINS_6StringIcNS_9AllocatorIcEEEEEEEptEv>:
    1ce4:	f3 0f 1e fa          	endbr64 
    1ce8:	55                   	push   %rbp
    1ce9:	48 89 e5             	mov    %rsp,%rbp
    1cec:	48 89 7d f8          	mov    %rdi,-0x8(%rbp)
    1cf0:	48 8b 45 f8          	mov    -0x8(%rbp),%rax
    1cf4:	48 8b 00             	mov    (%rax),%rax
    1cf7:	5d                   	pop    %rbp
    1cf8:	c3                   	ret    
    1cf9:	90                   	nop

0000000000001cfa <_ZN4util12SmartPointerINS_4NodeINS_6StringIcNS_9AllocatorIcEEEEEEEaSEPS6_>:
    1cfa:	f3 0f 1e fa          	endbr64 
    1cfe:	55                   	push   %rbp
    1cff:	48 89 e5             	mov    %rsp,%rbp
    1d02:	48 89 7d f8          	mov    %rdi,-0x8(%rbp)
    1d06:	48 89 75 f0          	mov    %rsi,-0x10(%rbp)
    1d0a:	48 8b 45 f8          	mov    -0x8(%rbp),%rax
    1d0e:	48 8b 55 f0          	mov    -0x10(%rbp),%rdx
    1d12:	48 89 10             	mov    %rdx,(%rax)
    1d15:	90                   	nop
    1d16:	5d                   	pop    %rbp
    1d17:	c3                   	ret    

0000000000001d18 <_ZN4util4NodeINS_6StringIcNS_9AllocatorIcEEEEEC1ES4_NS_12SmartPointerIS5_EES7_>:
    1d18:	f3 0f 1e fa          	endbr64 
    1d1c:	55                   	push   %rbp
    1d1d:	48 89 e5             	mov    %rsp,%rbp
    1d20:	53                   	push   %rbx
    1d21:	48 83 ec 28          	sub    $0x28,%rsp
    1d25:	48 89 7d e8          	mov    %rdi,-0x18(%rbp)
    1d29:	48 89 75 e0          	mov    %rsi,-0x20(%rbp)
    1d2d:	48 89 55 d8          	mov    %rdx,-0x28(%rbp)
    1d31:	48 89 4d d0          	mov    %rcx,-0x30(%rbp)
    1d35:	48 8b 45 e8          	mov    -0x18(%rbp),%rax
    1d39:	be 00 00 00 00       	mov    $0x0,%esi
    1d3e:	48 89 c7             	mov    %rax,%rdi
    1d41:	e8 80 ff ff ff       	call   1cc6 <_ZN4util12SmartPointerINS_4NodeINS_6StringIcNS_9AllocatorIcEEEEEEEC1EPS6_>
    1d46:	48 8b 45 e8          	mov    -0x18(%rbp),%rax
    1d4a:	48 83 c0 08          	add    $0x8,%rax
    1d4e:	48 89 c7             	mov    %rax,%rdi
    1d51:	e8 90 fe ff ff       	call   1be6 <_ZN4util6StringIcNS_9AllocatorIcEEEC1Ev>
    1d56:	48 8b 45 e8          	mov    -0x18(%rbp),%rax
    1d5a:	48 83 c0 28          	add    $0x28,%rax
    1d5e:	be 00 00 00 00       	mov    $0x0,%esi
    1d63:	48 89 c7             	mov    %rax,%rdi
    1d66:	e8 5b ff ff ff       	call   1cc6 <_ZN4util12SmartPointerINS_4NodeINS_6StringIcNS_9AllocatorIcEEEEEEEC1EPS6_>
    1d6b:	48 8b 45 e8          	mov    -0x18(%rbp),%rax
    1d6f:	48 8d 50 08          	lea    0x8(%rax),%rdx
    1d73:	48 8b 45 e0          	mov    -0x20(%rbp),%rax
    1d77:	48 89 c6             	mov    %rax,%rsi
    1d7a:	48 89 d7             	mov    %rdx,%rdi
    1d7d:	e8 8e fc ff ff       	call   1a10 <_ZN4util6StringIcNS_9AllocatorIcEEEaSERKS3_>
    1d82:	48 8b 45 e8          	mov    -0x18(%rbp),%rax
    1d86:	48 8b 55 d0          	mov    -0x30(%rbp),%rdx
    1d8a:	48 8b 12             	mov    (%rdx),%rdx
    1d8d:	48 89 50 28          	mov    %rdx,0x28(%rax)
    1d91:	48 8b 45 e8          	mov    -0x18(%rbp),%rax
    1d95:	48 8b 55 d8          	mov    -0x28(%rbp),%rdx
    1d99:	48 8b 12             	mov    (%rdx),%rdx
    1d9c:	48 89 10             	mov    %rdx,(%rax)
    1d9f:	eb 1e                	jmp    1dbf <_ZN4util4NodeINS_6StringIcNS_9AllocatorIcEEEEEC1ES4_NS_12SmartPointerIS5_EES7_+0xa7>
    1da1:	f3 0f 1e fa          	endbr64 
    1da5:	48 89 c3             	mov    %rax,%rbx
    1da8:	48 8b 45 e8          	mov    -0x18(%rbp),%rax
    1dac:	48 89 c7             	mov    %rax,%rdi
    1daf:	e8 4a fa ff ff       	call   17fe <_ZN4util12SmartPointerINS_4NodeINS_6StringIcNS_9AllocatorIcEEEEEEED1Ev>
    1db4:	48 89 d8             	mov    %rbx,%rax
    1db7:	48 89 c7             	mov    %rax,%rdi
    1dba:	e8 91 f3 ff ff       	call   1150 <_Unwind_Resume@plt>
    1dbf:	48 8b 5d f8          	mov    -0x8(%rbp),%rbx
    1dc3:	c9                   	leave  
    1dc4:	c3                   	ret    
    1dc5:	90                   	nop

0000000000001dc6 <_ZN4util6StringIcNS_9AllocatorIcEEE14getNonTermSizeEPc>:
    1dc6:	f3 0f 1e fa          	endbr64 
    1dca:	55                   	push   %rbp
    1dcb:	48 89 e5             	mov    %rsp,%rbp
    1dce:	48 89 7d e8          	mov    %rdi,-0x18(%rbp)
    1dd2:	48 89 75 e0          	mov    %rsi,-0x20(%rbp)
    1dd6:	48 8b 45 e0          	mov    -0x20(%rbp),%rax
    1dda:	48 89 45 f8          	mov    %rax,-0x8(%rbp)
    1dde:	eb 05                	jmp    1de5 <_ZN4util6StringIcNS_9AllocatorIcEEE14getNonTermSizeEPc+0x1f>
    1de0:	48 83 45 f8 01       	addq   $0x1,-0x8(%rbp)
    1de5:	48 8b 45 f8          	mov    -0x8(%rbp),%rax
    1de9:	0f b6 00             	movzbl (%rax),%eax
    1dec:	84 c0                	test   %al,%al
    1dee:	75 f0                	jne    1de0 <_ZN4util6StringIcNS_9AllocatorIcEEE14getNonTermSizeEPc+0x1a>
    1df0:	48 8b 45 f8          	mov    -0x8(%rbp),%rax
    1df4:	48 2b 45 e0          	sub    -0x20(%rbp),%rax
    1df8:	5d                   	pop    %rbp
    1df9:	c3                   	ret    

0000000000001dfa <_ZN4util6StringIcNS_9AllocatorIcEEE6substrEii>:
    1dfa:	f3 0f 1e fa          	endbr64 
    1dfe:	55                   	push   %rbp
    1dff:	48 89 e5             	mov    %rsp,%rbp
    1e02:	48 83 ec 20          	sub    $0x20,%rsp
    1e06:	48 89 7d e8          	mov    %rdi,-0x18(%rbp)
    1e0a:	89 75 e4             	mov    %esi,-0x1c(%rbp)
    1e0d:	89 55 e0             	mov    %edx,-0x20(%rbp)
    1e10:	48 8b 45 e8          	mov    -0x18(%rbp),%rax
    1e14:	48 8d 50 08          	lea    0x8(%rax),%rdx
    1e18:	8b 45 e0             	mov    -0x20(%rbp),%eax
    1e1b:	2b 45 e4             	sub    -0x1c(%rbp),%eax
    1e1e:	48 98                	cltq   
    1e20:	48 89 c6             	mov    %rax,%rsi
    1e23:	48 89 d7             	mov    %rdx,%rdi
    1e26:	e8 6f 00 00 00       	call   1e9a <_ZN4util9AllocatorIcE8allocateEm>
    1e2b:	48 89 45 f8          	mov    %rax,-0x8(%rbp)
    1e2f:	8b 45 e4             	mov    -0x1c(%rbp),%eax
    1e32:	89 45 f4             	mov    %eax,-0xc(%rbp)
    1e35:	eb 29                	jmp    1e60 <_ZN4util6StringIcNS_9AllocatorIcEEE6substrEii+0x66>
    1e37:	48 8b 45 e8          	mov    -0x18(%rbp),%rax
    1e3b:	48 8b 10             	mov    (%rax),%rdx
    1e3e:	8b 45 f4             	mov    -0xc(%rbp),%eax
    1e41:	48 98                	cltq   
    1e43:	48 8d 0c 02          	lea    (%rdx,%rax,1),%rcx
    1e47:	8b 45 f4             	mov    -0xc(%rbp),%eax
    1e4a:	2b 45 e4             	sub    -0x1c(%rbp),%eax
    1e4d:	48 63 d0             	movslq %eax,%rdx
    1e50:	48 8b 45 f8          	mov    -0x8(%rbp),%rax
    1e54:	48 01 c2             	add    %rax,%rdx
    1e57:	0f b6 01             	movzbl (%rcx),%eax
    1e5a:	88 02                	mov    %al,(%rdx)
    1e5c:	83 45 f4 01          	addl   $0x1,-0xc(%rbp)
    1e60:	8b 45 f4             	mov    -0xc(%rbp),%eax
    1e63:	3b 45 e0             	cmp    -0x20(%rbp),%eax
    1e66:	7c cf                	jl     1e37 <_ZN4util6StringIcNS_9AllocatorIcEEE6substrEii+0x3d>
    1e68:	48 8b 45 f8          	mov    -0x8(%rbp),%rax
    1e6c:	c9                   	leave  
    1e6d:	c3                   	ret    

0000000000001e6e <_ZN4util6StringIcNS_9AllocatorIcEEE6asCStrEv>:
    1e6e:	f3 0f 1e fa          	endbr64 
    1e72:	55                   	push   %rbp
    1e73:	48 89 e5             	mov    %rsp,%rbp
    1e76:	48 89 7d f8          	mov    %rdi,-0x8(%rbp)
    1e7a:	48 8b 45 f8          	mov    -0x8(%rbp),%rax
    1e7e:	48 8b 00             	mov    (%rax),%rax
    1e81:	5d                   	pop    %rbp
    1e82:	c3                   	ret    
    1e83:	90                   	nop

0000000000001e84 <_ZN4util12SmartPointerINS_4NodeINS_6StringIcNS_9AllocatorIcEEEEEEE3getEv>:
    1e84:	f3 0f 1e fa          	endbr64 
    1e88:	55                   	push   %rbp
    1e89:	48 89 e5             	mov    %rsp,%rbp
    1e8c:	48 89 7d f8          	mov    %rdi,-0x8(%rbp)
    1e90:	48 8b 45 f8          	mov    -0x8(%rbp),%rax
    1e94:	48 8b 00             	mov    (%rax),%rax
    1e97:	5d                   	pop    %rbp
    1e98:	c3                   	ret    
    1e99:	90                   	nop

0000000000001e9a <_ZN4util9AllocatorIcE8allocateEm>:
    1e9a:	f3 0f 1e fa          	endbr64 
    1e9e:	55                   	push   %rbp
    1e9f:	48 89 e5             	mov    %rsp,%rbp
    1ea2:	48 83 ec 20          	sub    $0x20,%rsp
    1ea6:	48 89 7d e8          	mov    %rdi,-0x18(%rbp)
    1eaa:	48 89 75 e0          	mov    %rsi,-0x20(%rbp)
    1eae:	48 8b 45 e0          	mov    -0x20(%rbp),%rax
    1eb2:	48 89 c7             	mov    %rax,%rdi
    1eb5:	e8 16 f2 ff ff       	call   10d0 <_Znam@plt>
    1eba:	48 89 45 f8          	mov    %rax,-0x8(%rbp)
    1ebe:	48 8b 45 f8          	mov    -0x8(%rbp),%rax
    1ec2:	c9                   	leave  
    1ec3:	c3                   	ret    

Disassembly of section .fini:

0000000000001ec4 <_fini>:
    1ec4:	f3 0f 1e fa          	endbr64 
    1ec8:	48 83 ec 08          	sub    $0x8,%rsp
    1ecc:	48 83 c4 08          	add    $0x8,%rsp
    1ed0:	c3                   	ret    
Contents of the .eh_frame section (loaded from main):


00000000 0000000000000014 00000000 CIE
  Version:               1
  Augmentation:          "zR"
  Code alignment factor: 1
  Data alignment factor: -8
  Return address column: 16
  Augmentation data:     1b
  DW_CFA_def_cfa: r7 (rsp) ofs 8
  DW_CFA_offset: r16 (rip) at cfa-8
  DW_CFA_nop
  DW_CFA_nop

00000018 0000000000000014 0000001c FDE cie=00000000 pc=0000000000001160..0000000000001186
  DW_CFA_advance_loc: 4 to 0000000000001164
  DW_CFA_undefined: r16 (rip)
  DW_CFA_nop
  DW_CFA_nop
  DW_CFA_nop
  DW_CFA_nop

00000030 0000000000000024 00000034 FDE cie=00000000 pc=0000000000001020..00000000000010c0
  DW_CFA_def_cfa_offset: 16
  DW_CFA_advance_loc: 6 to 0000000000001026
  DW_CFA_def_cfa_offset: 24
  DW_CFA_advance_loc: 10 to 0000000000001030
  DW_CFA_def_cfa_expression (DW_OP_breg7 (rsp): 8; DW_OP_breg16 (rip): 0; DW_OP_lit15; DW_OP_and; DW_OP_lit10; DW_OP_ge; DW_OP_lit3; DW_OP_shl; DW_OP_plus)
  DW_CFA_nop
  DW_CFA_nop
  DW_CFA_nop
  DW_CFA_nop

00000058 0000000000000014 0000005c FDE cie=00000000 pc=00000000000010c0..00000000000010d0
  DW_CFA_nop
  DW_CFA_nop
  DW_CFA_nop
  DW_CFA_nop
  DW_CFA_nop
  DW_CFA_nop
  DW_CFA_nop

00000070 0000000000000014 00000074 FDE cie=00000000 pc=00000000000010d0..0000000000001160
  DW_CFA_nop
  DW_CFA_nop
  DW_CFA_nop
  DW_CFA_nop
  DW_CFA_nop
  DW_CFA_nop
  DW_CFA_nop

00000088 000000000000001c 0000008c FDE cie=00000000 pc=0000000000001249..00000000000012c0
  DW_CFA_advance_loc: 5 to 000000000000124e
  DW_CFA_def_cfa_offset: 16
  DW_CFA_offset: r6 (rbp) at cfa-16
  DW_CFA_advance_loc: 3 to 0000000000001251
  DW_CFA_def_cfa_register: r6 (rbp)
  DW_CFA_advance_loc1: 110 to 00000000000012bf
  DW_CFA_def_cfa: r7 (rsp) ofs 8
  DW_CFA_nop
  DW_CFA_nop

000000a8 000000000000001c 000000ac FDE cie=00000000 pc=0000000000001330..0000000000001345
  DW_CFA_advance_loc: 5 to 0000000000001335
  DW_CFA_def_cfa_offset: 16
  DW_CFA_offset: r6 (rbp) at cfa-16
  DW_CFA_advance_loc: 3 to 0000000000001338
  DW_CFA_def_cfa_register: r6 (rbp)
  DW_CFA_advance_loc: 12 to 0000000000001344
  DW_CFA_def_cfa: r7 (rsp) ofs 8
  DW_CFA_nop
  DW_CFA_nop
  DW_CFA_nop

000000c8 000000000000001c 000000cc FDE cie=00000000 pc=00000000000012c0..0000000000001316
  DW_CFA_advance_loc: 5 to 00000000000012c5
  DW_CFA_def_cfa_offset: 16
  DW_CFA_offset: r6 (rbp) at cfa-16
  DW_CFA_advance_loc: 3 to 00000000000012c8
  DW_CFA_def_cfa_register: r6 (rbp)
  DW_CFA_advance_loc1: 77 to 0000000000001315
  DW_CFA_def_cfa: r7 (rsp) ofs 8
  DW_CFA_nop
  DW_CFA_nop

000000e8 000000000000001c 000000ec FDE cie=00000000 pc=0000000000001316..000000000000132f
  DW_CFA_advance_loc: 5 to 000000000000131b
  DW_CFA_def_cfa_offset: 16
  DW_CFA_offset: r6 (rbp) at cfa-16
  DW_CFA_advance_loc: 3 to 000000000000131e
  DW_CFA_def_cfa_register: r6 (rbp)
  DW_CFA_advance_loc: 16 to 000000000000132e
  DW_CFA_def_cfa: r7 (rsp) ofs 8
  DW_CFA_nop
  DW_CFA_nop
  DW_CFA_nop

00000108 000000000000001c 0000010c FDE cie=00000000 pc=00000000000014b8..000000000000152f
  DW_CFA_advance_loc: 5 to 00000000000014bd
  DW_CFA_def_cfa_offset: 16
  DW_CFA_offset: r6 (rbp) at cfa-16
  DW_CFA_advance_loc: 3 to 00000000000014c0
  DW_CFA_def_cfa_register: r6 (rbp)
  DW_CFA_advance_loc1: 110 to 000000000000152e
  DW_CFA_def_cfa: r7 (rsp) ofs 8
  DW_CFA_nop
  DW_CFA_nop

00000128 000000000000001c 0000012c FDE cie=00000000 pc=0000000000001530..0000000000001563
  DW_CFA_advance_loc: 5 to 0000000000001535
  DW_CFA_def_cfa_offset: 16
  DW_CFA_offset: r6 (rbp) at cfa-16
  DW_CFA_advance_loc: 3 to 0000000000001538
  DW_CFA_def_cfa_register: r6 (rbp)
  DW_CFA_advance_loc: 42 to 0000000000001562
  DW_CFA_def_cfa: r7 (rsp) ofs 8
  DW_CFA_nop
  DW_CFA_nop
  DW_CFA_nop

00000148 000000000000001c 00000000 CIE
  Version:               1
  Augmentation:          "zPLR"
  Code alignment factor: 1
  Data alignment factor: -8
  Return address column: 16
  Augmentation data:     9b 7d 1d 00 00 1b 1b
  DW_CFA_def_cfa: r7 (rsp) ofs 8
  DW_CFA_offset: r16 (rip) at cfa-8
  DW_CFA_nop
  DW_CFA_nop

00000168 0000000000000024 00000024 FDE cie=00000148 pc=0000000000001345..00000000000014b8
  Augmentation data:     33 03 00 00
  DW_CFA_advance_loc: 5 to 000000000000134a
  DW_CFA_def_cfa_offset: 16
  DW_CFA_offset: r6 (rbp) at cfa-16
  DW_CFA_advance_loc: 3 to 000000000000134d
  DW_CFA_def_cfa_register: r6 (rbp)
  DW_CFA_advance_loc: 8 to 0000000000001355
  DW_CFA_offset: r3 (rbx) at cfa-24
  DW_CFA_advance_loc2: 354 to 00000000000014b7
  DW_CFA_def_cfa: r7 (rsp) ofs 8
  DW_CFA_nop
  DW_CFA_nop

00000190 000000000000001c 00000194 FDE cie=00000000 pc=0000000000001564..0000000000001708
  DW_CFA_advance_loc: 5 to 0000000000001569
  DW_CFA_def_cfa_offset: 16
  DW_CFA_offset: r6 (rbp) at cfa-16
  DW_CFA_advance_loc: 3 to 000000000000156c
  DW_CFA_def_cfa_register: r6 (rbp)
  DW_CFA_advance_loc2: 411 to 0000000000001707
  DW_CFA_def_cfa: r7 (rsp) ofs 8
  DW_CFA_nop

000001b0 000000000000001c 000001b4 FDE cie=00000000 pc=0000000000001708..00000000000017cd
  DW_CFA_advance_loc: 5 to 000000000000170d
  DW_CFA_def_cfa_offset: 16
  DW_CFA_offset: r6 (rbp) at cfa-16
  DW_CFA_advance_loc: 3 to 0000000000001710
  DW_CFA_def_cfa_register: r6 (rbp)
  DW_CFA_advance_loc1: 188 to 00000000000017cc
  DW_CFA_def_cfa: r7 (rsp) ofs 8
  DW_CFA_nop
  DW_CFA_nop

000001d0 000000000000001c 000001d4 FDE cie=00000000 pc=00000000000017ce..00000000000017fd
  DW_CFA_advance_loc: 5 to 00000000000017d3
  DW_CFA_def_cfa_offset: 16
  DW_CFA_offset: r6 (rbp) at cfa-16
  DW_CFA_advance_loc: 3 to 00000000000017d6
  DW_CFA_def_cfa_register: r6 (rbp)
  DW_CFA_advance_loc: 38 to 00000000000017fc
  DW_CFA_def_cfa: r7 (rsp) ofs 8
  DW_CFA_nop
  DW_CFA_nop
  DW_CFA_nop

000001f0 000000000000001c 000001f4 FDE cie=00000000 pc=00000000000017fe..0000000000001843
  DW_CFA_advance_loc: 5 to 0000000000001803
  DW_CFA_def_cfa_offset: 16
  DW_CFA_offset: r6 (rbp) at cfa-16
  DW_CFA_advance_loc: 3 to 0000000000001806
  DW_CFA_def_cfa_register: r6 (rbp)
  DW_CFA_advance_loc: 5 to 000000000000180b
  DW_CFA_offset: r3 (rbx) at cfa-24
  DW_CFA_advance_loc: 55 to 0000000000001842
  DW_CFA_def_cfa: r7 (rsp) ofs 8

00000210 000000000000001c 00000214 FDE cie=00000000 pc=0000000000001844..000000000000186f
  DW_CFA_advance_loc: 5 to 0000000000001849
  DW_CFA_def_cfa_offset: 16
  DW_CFA_offset: r6 (rbp) at cfa-16
  DW_CFA_advance_loc: 3 to 000000000000184c
  DW_CFA_def_cfa_register: r6 (rbp)
  DW_CFA_advance_loc: 34 to 000000000000186e
  DW_CFA_def_cfa: r7 (rsp) ofs 8
  DW_CFA_nop
  DW_CFA_nop
  DW_CFA_nop

00000230 0000000000000028 000000ec FDE cie=00000148 pc=0000000000001870..00000000000019d1
  Augmentation data:     7e 02 00 00
  DW_CFA_advance_loc: 5 to 0000000000001875
  DW_CFA_def_cfa_offset: 16
  DW_CFA_offset: r6 (rbp) at cfa-16
  DW_CFA_advance_loc: 3 to 0000000000001878
  DW_CFA_def_cfa_register: r6 (rbp)
  DW_CFA_advance_loc: 9 to 0000000000001881
  DW_CFA_offset: r13 (r13) at cfa-24
  DW_CFA_offset: r12 (r12) at cfa-32
  DW_CFA_offset: r3 (rbx) at cfa-40
  DW_CFA_advance_loc2: 335 to 00000000000019d0
  DW_CFA_def_cfa: r7 (rsp) ofs 8
  DW_CFA_nop
  DW_CFA_nop

0000025c 000000000000001c 00000260 FDE cie=00000000 pc=00000000000019d2..0000000000001a0f
  DW_CFA_advance_loc: 5 to 00000000000019d7
  DW_CFA_def_cfa_offset: 16
  DW_CFA_offset: r6 (rbp) at cfa-16
  DW_CFA_advance_loc: 3 to 00000000000019da
  DW_CFA_def_cfa_register: r6 (rbp)
  DW_CFA_advance_loc: 52 to 0000000000001a0e
  DW_CFA_def_cfa: r7 (rsp) ofs 8
  DW_CFA_nop
  DW_CFA_nop
  DW_CFA_nop

0000027c 000000000000001c 00000280 FDE cie=00000000 pc=0000000000001a10..0000000000001a3a
  DW_CFA_advance_loc: 5 to 0000000000001a15
  DW_CFA_def_cfa_offset: 16
  DW_CFA_offset: r6 (rbp) at cfa-16
  DW_CFA_advance_loc: 3 to 0000000000001a18
  DW_CFA_def_cfa_register: r6 (rbp)
  DW_CFA_advance_loc: 33 to 0000000000001a39
  DW_CFA_def_cfa: r7 (rsp) ofs 8
  DW_CFA_nop
  DW_CFA_nop
  DW_CFA_nop

0000029c 000000000000001c 000002a0 FDE cie=00000000 pc=0000000000001a3a..0000000000001acd
  DW_CFA_advance_loc: 5 to 0000000000001a3f
  DW_CFA_def_cfa_offset: 16
  DW_CFA_offset: r6 (rbp) at cfa-16
  DW_CFA_advance_loc: 3 to 0000000000001a42
  DW_CFA_def_cfa_register: r6 (rbp)
  DW_CFA_advance_loc1: 138 to 0000000000001acc
  DW_CFA_def_cfa: r7 (rsp) ofs 8
  DW_CFA_nop
  DW_CFA_nop

000002bc 000000000000001c 000002c0 FDE cie=00000000 pc=0000000000001ace..0000000000001b6b
  DW_CFA_advance_loc: 5 to 0000000000001ad3
  DW_CFA_def_cfa_offset: 16
  DW_CFA_offset: r6 (rbp) at cfa-16
  DW_CFA_advance_loc: 3 to 0000000000001ad6
  DW_CFA_def_cfa_register: r6 (rbp)
  DW_CFA_advance_loc1: 148 to 0000000000001b6a
  DW_CFA_def_cfa: r7 (rsp) ofs 8
  DW_CFA_nop
  DW_CFA_nop

000002dc 000000000000001c 000002e0 FDE cie=00000000 pc=0000000000001b6c..0000000000001b97
  DW_CFA_advance_loc: 5 to 0000000000001b71
  DW_CFA_def_cfa_offset: 16
  DW_CFA_offset: r6 (rbp) at cfa-16
  DW_CFA_advance_loc: 3 to 0000000000001b74
  DW_CFA_def_cfa_register: r6 (rbp)
  DW_CFA_advance_loc: 34 to 0000000000001b96
  DW_CFA_def_cfa: r7 (rsp) ofs 8
  DW_CFA_nop
  DW_CFA_nop
  DW_CFA_nop

000002fc 000000000000001c 00000300 FDE cie=00000000 pc=0000000000001b98..0000000000001bba
  DW_CFA_advance_loc: 5 to 0000000000001b9d
  DW_CFA_def_cfa_offset: 16
  DW_CFA_offset: r6 (rbp) at cfa-16
  DW_CFA_advance_loc: 3 to 0000000000001ba0
  DW_CFA_def_cfa_register: r6 (rbp)
  DW_CFA_advance_loc: 25 to 0000000000001bb9
  DW_CFA_def_cfa: r7 (rsp) ofs 8
  DW_CFA_nop
  DW_CFA_nop
  DW_CFA_nop

0000031c 000000000000001c 00000320 FDE cie=00000000 pc=0000000000001bba..0000000000001be5
  DW_CFA_advance_loc: 5 to 0000000000001bbf
  DW_CFA_def_cfa_offset: 16
  DW_CFA_offset: r6 (rbp) at cfa-16
  DW_CFA_advance_loc: 3 to 0000000000001bc2
  DW_CFA_def_cfa_register: r6 (rbp)
  DW_CFA_advance_loc: 34 to 0000000000001be4
  DW_CFA_def_cfa: r7 (rsp) ofs 8
  DW_CFA_nop
  DW_CFA_nop
  DW_CFA_nop

0000033c 000000000000001c 00000340 FDE cie=00000000 pc=0000000000001be6..0000000000001c33
  DW_CFA_advance_loc: 5 to 0000000000001beb
  DW_CFA_def_cfa_offset: 16
  DW_CFA_offset: r6 (rbp) at cfa-16
  DW_CFA_advance_loc: 3 to 0000000000001bee
  DW_CFA_def_cfa_register: r6 (rbp)
  DW_CFA_advance_loc1: 68 to 0000000000001c32
  DW_CFA_def_cfa: r7 (rsp) ofs 8
  DW_CFA_nop
  DW_CFA_nop

0000035c 0000000000000020 00000360 FDE cie=00000000 pc=0000000000001c34..0000000000001cc6
  DW_CFA_advance_loc: 5 to 0000000000001c39
  DW_CFA_def_cfa_offset: 16
  DW_CFA_offset: r6 (rbp) at cfa-16
  DW_CFA_advance_loc: 3 to 0000000000001c3c
  DW_CFA_def_cfa_register: r6 (rbp)
  DW_CFA_advance_loc: 5 to 0000000000001c41
  DW_CFA_offset: r3 (rbx) at cfa-24
  DW_CFA_advance_loc1: 132 to 0000000000001cc5
  DW_CFA_def_cfa: r7 (rsp) ofs 8
  DW_CFA_nop
  DW_CFA_nop
  DW_CFA_nop

00000380 000000000000001c 00000384 FDE cie=00000000 pc=0000000000001cc6..0000000000001ce4
  DW_CFA_advance_loc: 5 to 0000000000001ccb
  DW_CFA_def_cfa_offset: 16
  DW_CFA_offset: r6 (rbp) at cfa-16
  DW_CFA_advance_loc: 3 to 0000000000001cce
  DW_CFA_def_cfa_register: r6 (rbp)
  DW_CFA_advance_loc: 21 to 0000000000001ce3
  DW_CFA_def_cfa: r7 (rsp) ofs 8
  DW_CFA_nop
  DW_CFA_nop
  DW_CFA_nop

000003a0 000000000000001c 000003a4 FDE cie=00000000 pc=0000000000001ce4..0000000000001cf9
  DW_CFA_advance_loc: 5 to 0000000000001ce9
  DW_CFA_def_cfa_offset: 16
  DW_CFA_offset: r6 (rbp) at cfa-16
  DW_CFA_advance_loc: 3 to 0000000000001cec
  DW_CFA_def_cfa_register: r6 (rbp)
  DW_CFA_advance_loc: 12 to 0000000000001cf8
  DW_CFA_def_cfa: r7 (rsp) ofs 8
  DW_CFA_nop
  DW_CFA_nop
  DW_CFA_nop

000003c0 000000000000001c 000003c4 FDE cie=00000000 pc=0000000000001cfa..0000000000001d18
  DW_CFA_advance_loc: 5 to 0000000000001cff
  DW_CFA_def_cfa_offset: 16
  DW_CFA_offset: r6 (rbp) at cfa-16
  DW_CFA_advance_loc: 3 to 0000000000001d02
  DW_CFA_def_cfa_register: r6 (rbp)
  DW_CFA_advance_loc: 21 to 0000000000001d17
  DW_CFA_def_cfa: r7 (rsp) ofs 8
  DW_CFA_nop
  DW_CFA_nop
  DW_CFA_nop

000003e0 0000000000000024 0000029c FDE cie=00000148 pc=0000000000001d18..0000000000001dc5
  Augmentation data:     e2 00 00 00
  DW_CFA_advance_loc: 5 to 0000000000001d1d
  DW_CFA_def_cfa_offset: 16
  DW_CFA_offset: r6 (rbp) at cfa-16
  DW_CFA_advance_loc: 3 to 0000000000001d20
  DW_CFA_def_cfa_register: r6 (rbp)
  DW_CFA_advance_loc: 5 to 0000000000001d25
  DW_CFA_offset: r3 (rbx) at cfa-24
  DW_CFA_advance_loc1: 159 to 0000000000001dc4
  DW_CFA_def_cfa: r7 (rsp) ofs 8
  DW_CFA_nop
  DW_CFA_nop
  DW_CFA_nop

00000408 000000000000001c 0000040c FDE cie=00000000 pc=0000000000001dc6..0000000000001dfa
  DW_CFA_advance_loc: 5 to 0000000000001dcb
  DW_CFA_def_cfa_offset: 16
  DW_CFA_offset: r6 (rbp) at cfa-16
  DW_CFA_advance_loc: 3 to 0000000000001dce
  DW_CFA_def_cfa_register: r6 (rbp)
  DW_CFA_advance_loc: 43 to 0000000000001df9
  DW_CFA_def_cfa: r7 (rsp) ofs 8
  DW_CFA_nop
  DW_CFA_nop
  DW_CFA_nop

00000428 000000000000001c 0000042c FDE cie=00000000 pc=0000000000001dfa..0000000000001e6e
  DW_CFA_advance_loc: 5 to 0000000000001dff
  DW_CFA_def_cfa_offset: 16
  DW_CFA_offset: r6 (rbp) at cfa-16
  DW_CFA_advance_loc: 3 to 0000000000001e02
  DW_CFA_def_cfa_register: r6 (rbp)
  DW_CFA_advance_loc1: 107 to 0000000000001e6d
  DW_CFA_def_cfa: r7 (rsp) ofs 8
  DW_CFA_nop
  DW_CFA_nop

00000448 000000000000001c 0000044c FDE cie=00000000 pc=0000000000001e6e..0000000000001e83
  DW_CFA_advance_loc: 5 to 0000000000001e73
  DW_CFA_def_cfa_offset: 16
  DW_CFA_offset: r6 (rbp) at cfa-16
  DW_CFA_advance_loc: 3 to 0000000000001e76
  DW_CFA_def_cfa_register: r6 (rbp)
  DW_CFA_advance_loc: 12 to 0000000000001e82
  DW_CFA_def_cfa: r7 (rsp) ofs 8
  DW_CFA_nop
  DW_CFA_nop
  DW_CFA_nop

00000468 000000000000001c 0000046c FDE cie=00000000 pc=0000000000001e84..0000000000001e99
  DW_CFA_advance_loc: 5 to 0000000000001e89
  DW_CFA_def_cfa_offset: 16
  DW_CFA_offset: r6 (rbp) at cfa-16
  DW_CFA_advance_loc: 3 to 0000000000001e8c
  DW_CFA_def_cfa_register: r6 (rbp)
  DW_CFA_advance_loc: 12 to 0000000000001e98
  DW_CFA_def_cfa: r7 (rsp) ofs 8
  DW_CFA_nop
  DW_CFA_nop
  DW_CFA_nop

00000488 000000000000001c 0000048c FDE cie=00000000 pc=0000000000001e9a..0000000000001ec4
  DW_CFA_advance_loc: 5 to 0000000000001e9f
  DW_CFA_def_cfa_offset: 16
  DW_CFA_offset: r6 (rbp) at cfa-16
  DW_CFA_advance_loc: 3 to 0000000000001ea2
  DW_CFA_def_cfa_register: r6 (rbp)
  DW_CFA_advance_loc: 33 to 0000000000001ec3
  DW_CFA_def_cfa: r7 (rsp) ofs 8
  DW_CFA_nop
  DW_CFA_nop
  DW_CFA_nop

000004a8 ZERO terminator


